(dp1
S'output'
p2
S'missing "pass" in view'
p3
sS'layer'
p4
S'ParserContainer'
p5
sS'code'
p6
S'response.write(\'<!DOCTYPE html PUBLIC "-//W3C//DTD XHTML 1.0 Transitional//EN" "http://www.w3.org/TR/xhtml1/DTD/xhtml1-transitional.dtd">\\n<html xmlns="http://www.w3.org/1999/xhtml">\\n<head>\\n<title>\', escape=False)\nresponse.write(page_title)\nresponse.write(\'</title>\\n\\n<link rel="stylesheet" href="/Library/static/css/a.css" type="text/css" />\\n  \\n<script type="text/javascript" src="http://code.jquery.com/jquery-1.9.1.min.js"></script> \\n <link rel="shortcut icon" href="/Library/static/imgs/library4.png"/>\\n<meta name="viewport" content="width=device-width, initial-scale=1">\\n\\n</head>\\n<body>\\n\\n<div class="container">\\n    <img src="/Library/static/imgs/book3.jpg" width=100%/>\\n</div>\\n<div id="outer-wrapper">\\n  <div id="inner-wrapper">\\n    <div id="content-wrapper">\\n      <div id="content">\\n        <!--<form name="search" action="#" id="search-form">\\n          <input type="text" class="txt" value="Search" />\\n        </form>-->\\n      \\n     \\n        \\n        <ul id="nav">\\n          \\n          \\n           \\n                  \\n\\t\\t\', escape=False)\nmenu = [("index","Home"),\n("bookdisplay","Books"),\n("appguide","AppGuide"),("about","About")]\nfor (path,text) in menu:\n    if request.controller == \'default\' and request.function == path:\n        response.write(LI(A(text, _href=URL(\'default\',path))))\n    else:\n        response.write(LI(A(text, _href=URL(\'default\', path))))\n        response.write(\'\\n          \\n         \\n           \', escape=False)\n        pass\n    response.write(\'\\n        \', escape=False)\n    pass\nresponse.write(\'\\n          <!--<li><a href="#">Home</a></li>\\n          <li><a href="#">Newsletters</a></li>\\n          <li><a href="#">Blog</a></li>\\n          <li><a href="#">About</a></li>\\n          <li><a href="#">Contact</a></li>-->\\n           <li style="list-style-image: url(\\\'/Library/static/images/triangle.png\\\');" class="library_categories">Library\\n             <ul class="categories">\\n                <li><a href="/Library/default/classics">Classics</a></li>\\n                <li><a href="/Library/default/science_fiction">Sci-Fic</a></li>\\n                 <li><a href="/Library/default/Romance">Romance</a></li>\\n                 <li><a href="/Library/default/Adventure">Adventure</a></li>\\n                 <li><a href="/Library/default/Thrill">Thrill</a></li>\\n                 <li><a href="/Library/default/History">History</a></li>\\n                 <li><a href="/Library/default/Engineering">Engineering</a></li>\\n                 <li><a href="/Library/default/Others">Others</a></li>\\n               </ul>\\n               \\n           </li>\\n             <li style="list-style-image: url(\\\'/Library/static/images/triangle.png\\\');" class="library_categories">User\\n             <ul class="categories">\\n                    <li><a href="/library/user/signup">Signup</a></li>\\n                    <li><a href="/library/user/signin">Signin</a></li>\\n                </ul>\\n            </li>\\n        </ul>\\n\', escape=False)\nresponse.write(\'\\n\\n<div id="content-inner">\\n          \\n          \', escape=False)\nif request.controller=="default" and request.function=="about" :\n    response.write(\'\\n\\t\\t  \', escape=False)\n    response.write(\'\\n\', escape=False)\n    if id is -1:\n        rows = db(db.books.id>0).select()\n    else:\n        rows = db(db.books.id>0 & db.books.category==id).select()\n        pass:\n            response.write(\'\\n<div>\\n    <h4>\\n    <table border="2" bordercolor=black>\\n        <tr><td>Book Name</td><td>Author Name</td><td>Description</td></tr>\\n        \', escape=False)\n            for row in rows:\n                response.write(\'\\n        <input type=hidden id=qw value=row.author>\\n        \', escape=False)\n                "ajax(\'=URL(find_au)\', [\'qw\'] , \'hel\');"\n                response.write(\'\\n        <tr><td><a href=\', escape=False)\n                response.write(URL(\'books\' , args=row.id))\n                response.write(\'>\', escape=False)\n                response.write(row.title)\n                response.write(\'</a></td><td id=hel></td><td>\', escape=False)\n                response.write(row.info)\n                response.write(\'</td></tr>\\n        \', escape=False)\n                pass\n            response.write(\'\\n    </table>\\n    </h4>\\n</div>\\n\', escape=False)\n            response.write(\'\\n\\t\\t     \', escape=False)\n            response.write(\'<div class="content-left"> <img src="/Library/static/imgs/mugla3.jpg" alt="NYC Photo" />\\n            <p>MU\\xc4\\x9eLA<br />\\n              <span>Mu\\xc4\\x9fla in the fall 2015</span></p>\\n          </div>\\n          <div class="content-right">\\n            <h2>\', escape=False)\n            response.write(\'</h2>\\n            \\n            <p class="intro"></p>\\n            <!--<p><a href="http://www.slicendiceit.com">slice n dice</a></p>-->\\n            <!--<p class="end-story-links"><a href="#">14 Comments</a> | <a href="#">Read on...</a></p>-->\\n          </div>\\n          <div class="content-full">\\n            <!--<h2>Full page blog provides plenty of space</h2>-->\\n            \\n            <p class="intro"></p>\\n            <p></p>\\n            <img src="/modern_library/static/imgs/muglaautumn2.jpg" alt="" class="content-img" />\\n            <p class="intro"></p>\\n            <p></p>\\n            <p></p>\\n            <!--<p class="end-story-links"><a href="#">37 Comments</a> | <a href="#">Read on...</a></p>-->\\n\\t\\t\\t\\n</div>\\n\', escape=False)\n            response.write(\'\\n\\t\\t  \\n\\t\\t  \', escape=False)\n        else:\n            response.write(\' \', escape=False)\n            response.write(\'\\n\', escape=False)\n            if id is -1:\n                rows = db(db.books.id>0).select()\n            else:\n                rows = db(db.books.id>0 & db.books.category==id).select()\n                pass:\n                    response.write(\'\\n<div>\\n    <h4>\\n    <table border="2" bordercolor=black>\\n        <tr><td>Book Name</td><td>Author Name</td><td>Description</td></tr>\\n        \', escape=False)\n                    for row in rows:\n                        response.write(\'\\n        <input type=hidden id=qw value=row.author>\\n        \', escape=False)\n                        "ajax(\'=URL(find_au)\', [\'qw\'] , \'hel\');"\n                        response.write(\'\\n        <tr><td><a href=\', escape=False)\n                        response.write(URL(\'books\' , args=row.id))\n                        response.write(\'>\', escape=False)\n                        response.write(row.title)\n                        response.write(\'</a></td><td id=hel></td><td>\', escape=False)\n                        response.write(row.info)\n                        response.write(\'</td></tr>\\n        \', escape=False)\n                        pass\n                    response.write(\'\\n    </table>\\n    </h4>\\n</div>\\n\', escape=False)\n                    response.write(\'\\n\\t\\t  \\n\\t\\t  \', escape=False)\n                    pass\n                response.write(\'\\n        </div>\\n      </div>\\n\\t  <div id="sidebar">\\n           <div id="logo"></div>\\n            \', escape=False)\n                if session.user:\n                    response.write(\'\\n              <p style="margin-left: 20px; font-size: 18px; font-family: sans-serif; color: #978f7c; text-decoration: none;">Hello \', escape=False)\n                    response.write(A(user.username,\n                    _href=URL("account", args=[user.id])))\n                    response.write(\'. </br>\\n              To logout \', escape=False)\n                    response.write(A("click",\n                    _href=URL("user", "logout")))\n                    response.write(\'.   </p>      \\n            \', escape=False)\n                else:\n                    response.write(\'  \\n               <form style="margin-left: 20px; font-size: 18px; font-family: sans-serif; color: #978f7c; text-decoration: none;" action="\', escape=False)\n                    response.write(URL(\'user\', \'signin\'))\n                    response.write(\'" method="post">\\n                 Username: <input type="text" name="username"><br>\\n                 Password: <input type="password" name="pw"><br>\\n                  <input style="width: 173px;font-size: 18px; font-family: sans-serif; color: #978f7c; text-decoration: none;" type="submit" value="Log in">\\n              </form>\\n              \\n              \', escape=False)\n                    pass\n                response.write(\' \\n          \', escape=False)\n                if response.flash:\n                    response.write(\'<div class="w2p_flash_signin alert alert-dismissable">\', escape=False)\n                    response.write(A(response.flash, _href=URL("default", "index")))\n                    response.write(\'</div> \', escape=False)\n                    pass\n                response.write(\'\\n          \', escape=False)\n                if request.controller == "default" and request.function=="about" :\n                    response.write(\'\\n\\t        \', escape=False)\n                    response.write(\'    \\r\\n        \\r\\n        <h4>Know more about our town</h4>\\r\\n        <ul class="side-nav">\\r\\n          <li><a href="/modern_library/default/history">History of Mu\\xc4\\x9fla</a></li>\\r\\n          <li><a href="/modern_library/default/travelling">Travelling</a></li>\\r\\n          <li><a href="https://en.wikipedia.org/wiki/Mu%C4%9Fla">Articles about Mu\\xc4\\x9fla</a></li>\\r\\n          <li><a href="http://www.mu.edu.tr/">Mu\\xc4\\x9fla S\\xc4\\xb1tk\\xc4\\xb1 Ko\\xc3\\xa7man University</a></li>\\r\\n        </ul>\\r\\n      \', escape=False)\n                    response.write(\'\\n\\t\\t  \\n          \', escape=False)\n                else:\n                    response.write(\'\\r\\n\\r\\n        \\r\\n        <h4>Offerings</h4>\\r\\n        <ul class="side-nav">\\r\\n          \\r\\n          <li><a href="/modern_library/default/series">Series</a></li>\\r\\n          <li><a href="/modern_library/default/lib">History of Library</a></li>\\r\\n          <li><a href="#">Jobs & Fellowships</a></li>\\r\\n        </ul>\\r\\n        <h4>Quotes</h4>\\r\\n        <ul class="side-nav">\\r\\n          <li><a href="/modern_library/default/shakespeare_quotes">Shakespeare</a></li>\\r\\n          <li><a href="/modern_library/default/bestseller_quotes">From Bestsellers</a></li>\\r\\n          <li><a href="/modern_library/default/TLOTR_quotes">The Lord Of The Rings</a></li>\\r\\n        </ul>\\r\\n  \', escape=False)\n                    response.write(\'\\n           \\n            \\n      \', escape=False)\n                    pass\n                response.write(\'\\n\\n\\n\\n\\n    </div>\\n\\t\\n\\t</div>\\n\\t\\n\', escape=False)\n                response.write(\'<div id="footer">\\n\\n\\n      <ul id="footer-nav">\\n\\t  \', escape=False)\n                menu2 = [("index", "Home"),("about", "About"),("classics","Classics"),\n                ("links","Links"),("contact","Contact Us"),\n                ("appguide","AppGuide")]\n                for (path1,text1) in menu2:\n                    if request.controller == "default" and request.function== path1:\n                        response.write(LI(A(text1, _href=URL(path1))))\n                    elif request.controller == "default" and path1 != "index" and path1 != "about" and path1 != "classics" and path1 != "top100" and path1 != "shakespeare_bests" and path1 != "appguide":\n                        response.write(LI(A(text1, _href=URL("error_page"))))\n                    else:\n                        response.write(LI(A(text1, _href=URL(path1))))\n                        response.write(\'\\n\\t  \', escape=False)\n                        pass\n                    response.write(\'\\n\\t  \', escape=False)\n                    pass\n                response.write(\'\\n\\t  \', escape=False)\n                pass\n            response.write(\'\\n\\n      </ul>\\n      <p class="copyright">Copyright 2016 Coding by Paawan & Satyam</p>\\n    </div>\\n  </div>\\n</div>\\n\\n\\n<!-- The javascript =============================================\\n       (Placed at the end of the document so the pages load faster) -->\\n\\n  <script src="\', escape=False)\n            response.write(URL(\'static\',\'js/bootstrap.min.js\'))\n            response.write(\'"></script>\\n  <link rel="\', escape=False)\n            response.write(URL(\'static\',\'css/bootstrap.min.css\'))\n            response.write(\'">\\n  <script src="https://ajax.googleapis.com/ajax/libs/jquery/1.11.3/jquery.min.js"></script>\\n  <script src="\', escape=False)\n            response.write(URL(\'static\',\'js/web2py_bootstrap.js\'))\n            response.write(\'"></script>\\n  \', escape=False)\n            if response.google_analytics_id:\n                response.write(\'\\n    <script src="\', escape=False)\n                response.write(URL(\'static\',\'js/analytics.js\'))\n                response.write(\'"></script>\\n    <script type="text/javascript">\\n    analytics.initialize({\\n      \\\'Google Analytics\\\':{trackingId:\\\'\', escape=False)\n                response.write(response.google_analytics_id)\n                response.write("\'}\\n    });</script>\\n  ", escape=False)\n                pass\n            response.write(\'\\n</body>\\n</html>\\n\', escape=False)\n            response.write(\'\\n\', escape=False)'
p7
sS'snapshot'
p8
(dp9
S'exception'
p10
(dp11
S'__module__'
p12
S"'gluon.rocket'"
p13
sS'__getslice__'
p14
S"<method-wrapper '__getslice__' of SocketTimeout object>"
p15
sS'__str__'
p16
S"<method-wrapper '__str__' of SocketTimeout object>"
p17
sS'__reduce__'
p18
S'<built-in method __reduce__ of SocketTimeout object>'
p19
sS'__dict__'
p20
S'{}'
p21
sS'__sizeof__'
p22
S'<built-in method __sizeof__ of SocketTimeout object>'
p23
sS'__weakref__'
p24
S'None'
p25
sS'__init__'
p26
S"<method-wrapper '__init__' of SocketTimeout object>"
p27
sS'__setattr__'
p28
S"<method-wrapper '__setattr__' of SocketTimeout object>"
p29
sS'__reduce_ex__'
p30
S'<built-in method __reduce_ex__ of SocketTimeout object>'
p31
sS'__new__'
p32
S'<built-in method __new__ of type object>'
p33
sS'__format__'
p34
S'<built-in method __format__ of SocketTimeout object>'
p35
sS'__class__'
p36
S"<class 'gluon.rocket.SocketTimeout'>"
p37
sS'__doc__'
p38
S"'Exception for when a socket times out between requests.'"
p39
sS'__getitem__'
p40
S"<method-wrapper '__getitem__' of SocketTimeout object>"
p41
sS'__setstate__'
p42
S'<built-in method __setstate__ of SocketTimeout object>'
p43
sS'__getattribute__'
p44
S"<method-wrapper '__getattribute__' of SocketTimeout object>"
p45
sS'args'
p46
S"('Socket timed out before request.',)"
p47
sS'__subclasshook__'
p48
S'<built-in method __subclasshook__ of type object>'
p49
sS'__unicode__'
p50
S'<built-in method __unicode__ of SocketTimeout object>'
p51
sS'__delattr__'
p52
S"<method-wrapper '__delattr__' of SocketTimeout object>"
p53
sS'__repr__'
p54
S"<method-wrapper '__repr__' of SocketTimeout object>"
p55
sS'__hash__'
p56
S"<method-wrapper '__hash__' of SocketTimeout object>"
p57
ssS'evalue'
p58
S'Socket timed out before request.'
p59
sS'frames'
p60
(lp61
(dp62
S'file'
p63
S'/home/satyam/itws/web2py/gluon/rocket.py'
p64
sS'dump'
p65
(dp66
S'self'
p67
S'<WSGIWorker(Thread-5, started daemon 139717132809984)>'
p68
sS'conn'
p69
S'<gluon.rocket.Connection object>'
p70
sS'self.run_app'
p71
S'<bound method WSGIWorker.run_app of <WSGIWorker(Thread-5, started daemon 139717132809984)>>'
p72
ssS'lnum'
p73
I1337
sS'lines'
p74
(dp75
I1332
S'            # Enter connection serve loop'
p76
sI1333
S'            while True:'
p77
sI1334
S'                if __debug__:'
p78
sI1335
S"                    self.err_log.debug('Serving a request')"
p79
sI1336
S'                try:'
p80
sI1337
S'                    self.run_app(conn)'
p81
sI1338
S'                except:'
p82
sI1339
S'                    exc = sys.exc_info()'
p83
sI1340
S'                    handled = self._handleError(*exc)'
p84
sI1341
S'                    if handled:'
p85
ssS'call'
p86
S'(self=<WSGIWorker(Thread-5, started daemon 139717132809984)>)'
p87
sS'func'
p88
S'run'
p89
sa(dp90
g63
S'/home/satyam/itws/web2py/gluon/rocket.py'
p91
sg65
(dp92
S'self'
p93
S'<WSGIWorker(Thread-5, started daemon 139717132809984)>'
p94
sS'self.environ'
p95
S"{'HTTP_ACCEPT': 'text/html,application/xhtml+xml,application/xml;q=0.9,image/webp,*/*;q=0.8', 'HTTP_ACCEPT_ENCODING': 'gzip, deflate, sdch', 'HTTP_ACCEPT_LANGUAGE': 'en-US,en;q=0.8', 'HTTP_CACHE_CONTROL': 'max-age=0', 'HTTP_CONNECTION': 'keep-alive', 'HTTP_COOKIE': 'session_id_welcome=127.0.0.1-aadfbbde-4f75-48ed-...ey=127.0.0.1-32c97d88-f6d9-4d72-b963-15fd138a1e03', 'HTTP_HOST': '127.0.0.1:8000', 'HTTP_UPGRADE_INSECURE_REQUESTS': '1', 'HTTP_USER_AGENT': 'Mozilla/5.0 (X11; Linux x86_64) AppleWebKit/537..../49.0.2623.108 Chrome/49.0.2623.108 Safari/537.36', 'PATH_INFO': '/Library5/default/bookdisplay', ...}"
p96
sS'sock_file'
p97
S'<socket._fileobject object>'
p98
sS'environ'
p99
S'undefined'
p100
sS'self.build_environ'
p101
S'<bound method WSGIWorker.build_environ of <WSGIWorker(Thread-5, started daemon 139717132809984)>>'
p102
sS'conn'
p103
S'<gluon.rocket.Connection object>'
p104
ssg73
I1830
sg74
(dp105
I1825
S'        else:'
p106
sI1826
S'            sock_file = conn.makefile(BUF_SIZE)'
p107
sI1827
S''
sI1828
S'        try:'
p108
sI1829
S'            # Read the headers and build our WSGI environment'
p109
sI1830
S'            self.environ = environ = self.build_environ(sock_file, conn)'
p110
sI1831
S''
sI1832
S'            # Handle 100 Continue'
p111
sI1833
S"            if environ.get('HTTP_EXPECT', '') == '100-continue':"
p112
sI1834
S"                res = environ['SERVER_PROTOCOL'] + ' 100 Continue\\r\\n\\r\\n'"
p113
ssg86
S'(self=<WSGIWorker(Thread-5, started daemon 139717132809984)>, conn=<gluon.rocket.Connection object>)'
p114
sg88
S'run_app'
p115
sa(dp116
g63
S'/home/satyam/itws/web2py/gluon/rocket.py'
p117
sg65
(dp118
S'sock_file'
p119
S'<socket._fileobject object>'
p120
sS'self.read_request_line'
p121
S'<bound method WSGIWorker.read_request_line of <W...orker(Thread-5, started daemon 139717132809984)>>'
p122
sS'self'
p123
S'<WSGIWorker(Thread-5, started daemon 139717132809984)>'
p124
sS'request'
p125
g100
ssg73
I1650
sg74
(dp126
I1645
S'                                      "wsgiorg.futures": executor.futures})'
p127
sI1646
S''
sI1647
S'    def build_environ(self, sock_file, conn):'
p128
sI1648
S'        """ Build the execution environment. """'
p129
sI1649
S'        # Grab the request line'
p130
sI1650
S'        request = self.read_request_line(sock_file)'
p131
sI1651
S''
sI1652
S'        # Copy the Base Environment'
p132
sI1653
S'        environ = self.base_environ.copy()'
p133
sI1654
S''
ssg86
S'(self=<WSGIWorker(Thread-5, started daemon 139717132809984)>, sock_file=<socket._fileobject object>, conn=<gluon.rocket.Connection object>)'
p134
sg88
S'build_environ'
p135
sa(dp136
g63
S'/home/satyam/itws/web2py/gluon/rocket.py'
p137
sg65
(dp138
S'global SocketTimeout'
p139
S"<class 'gluon.rocket.SocketTimeout'>"
p140
ssg73
I1401
sg74
(dp141
I1396
S''
sI1397
S'                d = sock_file.readline()'
p142
sI1398
S'                if PY3K:'
p143
sI1399
S"                    d = d.decode('ISO-8859-1')"
p144
sI1400
S'        except socket.timeout:'
p145
sI1401
S"            raise SocketTimeout('Socket timed out before request.')"
p146
sI1402
S'        except TypeError:'
p147
sI1403
S'            raise SocketClosed('
p148
sI1404
S"                'SSL bug caused closure of socket.  See '"
p149
sI1405
S'                \'"https://groups.google.com/d/topic/web2py/P_Gw0JxWzCs".\')'
p150
ssg86
S'(self=<WSGIWorker(Thread-5, started daemon 139717132809984)>, sock_file=<socket._fileobject object>)'
p151
sg88
S'read_request_line'
p152
sasS'pyver'
p153
S'Python 2.7.10: /usr/bin/python (prefix: /usr)'
p154
sS'etype'
p155
S"<class 'gluon.rocket.SocketTimeout'>"
p156
sS'date'
p157
S'Tue Apr 19 00:44:45 2016'
p158
sS'locals'
p159
(dp160
S'sock_file'
p161
S'<socket._fileobject object>'
p162
sS'self'
p163
S'<WSGIWorker(Thread-5, started daemon 139717132809984)>'
p164
sssS'traceback'
p165
S'Traceback (most recent call last):\n  File "/home/satyam/itws/web2py/gluon/rocket.py", line 1337, in run\n    self.run_app(conn)\n  File "/home/satyam/itws/web2py/gluon/rocket.py", line 1830, in run_app\n    self.environ = environ = self.build_environ(sock_file, conn)\n  File "/home/satyam/itws/web2py/gluon/rocket.py", line 1650, in build_environ\n    request = self.read_request_line(sock_file)\n  File "/home/satyam/itws/web2py/gluon/rocket.py", line 1401, in read_request_line\n    raise SocketTimeout(\'Socket timed out before request.\')\nSocketTimeout: Socket timed out before request.\n'
p166
s.