(dp1
S'output'
p2
S"<type 'exceptions.NameError'> name 'page_title' is not defined"
p3
sS'layer'
p4
S'/home/satyam/itws/web2py/applications/library/views/user/signin.html'
p5
sS'code'
p6
S'response.write(\'<!DOCTYPE html PUBLIC "-//W3C//DTD XHTML 1.0 Transitional//EN" "http://www.w3.org/TR/xhtml1/DTD/xhtml1-transitional.dtd">\\n<html xmlns="http://www.w3.org/1999/xhtml">\\n<head>\\n<title>\', escape=False)\nresponse.write(page_title)\nresponse.write(\'</title>\\n    <link rel="stylesheet" href="/library/static/css/b.css" type="text/css" />\\n<link rel="stylesheet" href="/library/static/css/mytable.css" type="text/css" />\\n<script type="text/javascript">\\n\\t\\t\\t\\tvar imageArray = new Array();\\n\\t\\t\\t\\timageArray[0] = new Image();\\n\\t\\t\\t\\timageArray[1] = new Image();\\n\\t\\t\\t\\timageArray[0].src = "/library/static/imgs/book.jpg";\\n\\t\\t\\t\\timageArray[1].src = "/library/static/images/books2.jpg";\\n\\n\\t\\t\\t\\tvar step=0;\\n\\t\\t\\t\\tfunction slideit()\\n\\t\\t\\t\\t\\t{\\n\\t\\t\\t\\t\\t\\tdocument.getElementById(\\\'slide\\\').src = imageArray[step].src;\\n\\t\\t\\t\\t\\t\\tif (step<1)\\n\\t\\t\\t\\t\\t\\t\\tstep++;\\n\\t\\t\\t\\t\\t\\telse\\n\\t\\t\\t\\t\\t\\t\\tstep=0;\\n\\t\\t\\t\\t\\t\\tsetTimeout("slideit()",2000);\\n\\t\\t\\t\\t\\t}\\n\\t\\t\\t\\tslideit();\\n\\n\\t\\t\\t</script>\\t\\n<style>\\n    .slide{\\n        height:400px;\\n    }\\n  header,nav,ol,ul{\\n  margin: 0;\\n  padding: 0;\\n  border: 0;\\n  font-size: 100%;\\n  font: inherit;\\n  vertical-align: baseline;\\n}\\n    ol, ul {\\n  list-style: none;\\n}\\n    header {\\n        font-size:12px;\\n        width:100%;\\n  display:block;\\n  padding-top: 0px;\\n        padding:0px;\\n        margin:0px;\\n  border-bottom: 1px solid #dadada;\\n  -webkit-box-shadow: 0 0 1px rgba(0, 0, 0, 0.04);\\n  box-shadow: 0 0 1px rgba(0, 0, 0, 0.04);\\n}\\n\\nnav {\\n    z-index:2;\\n    width:100%;\\n    display:block;\\n  height: 34px;\\n    padding:0px;\\n    margin:0px;\\n  border-bottom: 5px solid white;\\n  -webkit-box-shadow: inset 0 -2px 1px rgba(0, 0, 0, 0.03);\\n  box-shadow: inset 0 -2px 1px rgba(0, 0, 0, 0.03);\\n}\\n\\n.nav {\\n  margin: 0 auto;\\n  width: 680px;\\n}\\n.nav a {\\n  display: block;\\n  text-decoration: none;\\n}\\n.nav > li {\\n  float: left;\\n  margin-right: 0px;\\n}\\n.nav > li > a {\\n  height: 34px;\\n  line-height: 34px;\\n  padding: 0 20px;\\n  font-weight: bold;\\n  color: white;\\n  text-decoration: none;\\n  text-shadow: 0 -1px rgba(0, 0, 0, 0.3);\\n  background: #e6b800;\\n  border-radius: 3px 3px 0 0;\\n  background-image: -webkit-linear-gradient(top, #9cb6c5, #759aaf);\\n  background-image: -moz-linear-gradient(top, #9cb6c5, #759aaf);\\n  background-image: -o-linear-gradient(top, #9cb6c5, #759aaf);\\n  background-image: linear-gradient(to bottom, #9cb6c5, #759aaf);\\n  -webkit-box-shadow: inset 0 1px rgba(255, 255, 255, 0.3), inset 0 -2px 2px rgba(0, 0, 0, 0.03), 0 2px white, 0 0 2px rgba(0, 0, 0, 0.2);\\n  box-shadow: inset 0 1px rgba(255, 255, 255, 0.3), inset 0 -2px 2px rgba(0, 0, 0, 0.03), 0 2px white, 0 0 2px rgba(0, 0, 0, 0.2);\\n}\\n.nav > li > a:hover {\\n  text-decoration: none;\\n  background: #e6b800;\\n  background-image: -webkit-linear-gradient(top, #afc5d1, #85a6b8);\\n  background-image: -moz-linear-gradient(top, #afc5d1, #85a6b8);\\n  background-image: -o-linear-gradient(top, #afc5d1, #85a6b8);\\n  background-image: linear-gradient(to bottom, #afc5d1, #85a6b8);\\n}\\n.nav > li.active > a, .nav > li > a:active, .nav > .dropdown:hover > a {\\n  background: white;\\n  color: #404040;\\n  text-shadow: none;\\n  -webkit-box-shadow: 0 2px white, 0 0 2px rgba(0, 0, 0, 0.2);\\n  box-shadow: 0 2px white, 0 0 2px rgba(0, 0, 0, 0.2);\\n}\\n.nav a.icon {\\n  position: relative;\\n  width: 40.8px;\\n  padding: 0;\\n}\\n.nav a.icon > span {\\n  display: block;\\n  position: absolute;\\n  top: 9px;\\n  left: 12px;\\n  height: 16px;\\n  width: 16px;\\n  background-repeat: no-repeat;\\n  background-position: 0 0;\\n  font: 0/0 serif;\\n  text-shadow: none;\\n  color: transparent;\\n}\\n\\n.nav .active a.icon > span, .nav a.icon:active > span {\\n  background-position: 0 -16px;\\n}\\n\\n.dropdown {\\n  position: relative;\\n  border-bottom: 5px solid white;\\n}\\n.dropdown:hover ul {\\n  display: block;\\n}\\n.dropdown ul {\\n  display: none;\\n  position: absolute;\\n  top: 39px;\\n  left: -1px;\\n  min-width: 160px;\\n  padding: 0 0 5px;\\n  background: white;\\n  border: 1px solid #dadada;\\n  border-top: 0;\\n  border-radius: 0 0 3px 3px;\\n  -webkit-box-shadow: 0 0 1px rgba(0, 0, 0, 0.04);\\n  box-shadow: 0 0 1px rgba(0, 0, 0, 0.04);\\n}\\n.dropdown ul.large {\\n  min-width: 200px;\\n}\\n.dropdown li {\\n  display: block;\\n  margin: 0 18px;\\n  overflow: visible;\\n}\\n.dropdown li + li {\\n  border-top: 1px solid #eee;\\n}\\n.dropdown li a {\\n  color: #555;\\n  padding: 8px 18px;\\n  margin: 0 -18px;\\n}\\n.dropdown li a:hover {\\n  color: black;\\n}\\n    </style>\\n\\n\\n<script type="text/javascript" src="http://code.jquery.com/jquery-1.9.1.min.js"></script> \\n <link rel="shortcut icon" href="/library/static/imgs/library4.png"/>\\n<meta name="viewport" content="width=device-width, initial-scale=1">\\n\\n</head>\\n<body onload="slideit();">\\n\\n<div class="container">\\n    <img id=slide height=320px src="/library/static/imgs/book.jpg" width=100%/>\\n</div>\\n<div id="outer-wrapper">\\n  <div id="inner-wrapper">\\n    <div id="content-wrapper">\\n      <div id="content">\\n        <!--<form name="search" action="#" id="search-form">\\n          <input type="text" class="txt" value="Search" />\\n        </form>-->\\n      \\n    \\n        \\n       <!-- <ul id="nav">-->\\n          \\n          \\n           \\n                  \\n\\t\\t<!--\', escape=False)\nmenu = [("index","Home"),("authors","authors"),\n("bookdisplay","Books"),\n("appguide","AppGuide"),("about","About")]\nfor (path,text) in menu:\n    if request.controller == \'default\' and request.function == path:\n        response.write(LI(A(text, _href=URL(\'default\',path))))\n    else:\n        response.write(LI(A(text, _href=URL(\'default\', path))))\n        response.write(\'\\n          \\n         \\n           \', escape=False)\n        pass\n    response.write(\'\\n        \', escape=False)\n    pass\nresponse.write(\'-->\\n<header>\\n    <nav>\\n      <ul class="nav">\\n          <li>\\n              <a href="\', escape=False)\nresponse.write(URL(\'index\'))\nresponse.write(\'">HOME</a>\\n          </li>\\n          <li>\\n              <a href="\', escape=False)\nresponse.write(URL(\'bookdisplay\'))\nresponse.write(\'">BOOKS</a>\\n          </li>\\n          <li>\\n              <a href="\', escape=False)\nresponse.write(URL(\'authors\'))\nresponse.write(\'">AUTHORS</a>\\n          </li>\\n          \', escape=False)\nif user:\n    response.write(\'\\n          <li>\\n              <a href="\', escape=False)\n    response.write(URL(\'search\'))\n    response.write(\'">Search</a>\\n          </li>\\n          \', escape=False)\nelse:\n    response.write(\'\\n        <li class="dropdown">\\n            <a>USER</a>\\n          <ul>\\n                    <li><a href=\\\'/library/user/signup\\\')>Signup</a></li>\\n                    <li><a href="/library/user/signin">Signin</a></li>\\n          </ul>\\n        </li>\\n          \', escape=False)\n    pass\nresponse.write(\'\\n        <li class="dropdown">\\n          <a >Types</a>\\n          <ul >\\n           <!-- <li><a href="index.html">Music</a></li>\\n            <li><a href="index.html">MP3 Downloads</a></li>\\n            <li><a href="index.html">Film &amp; TV</a></li>\\n            <li><a href="index.html">Blu-ray</a></li>\\n            <li><a href="index.html">PC &amp; Video Games</a></li>-->\\n              <li><a href="bookdisplay?id=1">Classics</a></li>\\n                <li><a href="bookdisplay?id=2">Sci-Fic</a></li>\\n                 <li><a href="bookdisplay?id=3">Romance</a></li>\\n                 <li><a href="bookdisplay?id=4">Adventure</a></li>\\n                 <li><a href="bookdisplay?id=5">Thrill</a></li>\\n                 <li><a href="bookdisplay?id=6">History</a></li>\\n                 <li><a href="bookdisplay?id=7">Engineering</a></li>\\n                 <li><a href="bookdisplay?id=8">Others</a></li>\\n          </ul>\\n        </li>\\n      </ul>\\n    </nav>\\n  </header>\\n          <!-- <li style="list-style-image: url(\\\'../static/images/triangle.png\\\');" class="library_categories">Library\\n             <ul class="categories">\\n                <li><a href="bookdisplay?id=1">Classics</a></li>\\n                <li><a href="bookdisplay?id=2">Sci-Fic</a></li>\\n                 <li><a href="bookdisplay?id=3">Romance</a></li>\\n                 <li><a href="bookdisplay?id=4">Adventure</a></li>\\n                 <li><a href="bookdisplay?id=5">Thrill</a></li>\\n                 <li><a href="bookdisplay?id=6">History</a></li>\\n                 <li><a href="bookdisplay?id=7">Engineering</a></li>\\n                 <li><a href="bookdisplay?id=8">Others</a></li>\\n               </ul>\\n               \\n           </li>\\n             <li style="list-style-image: url(\\\'static/images/triangle.png\\\');" class="library_categories">User\\n             <ul class="categories">\\n                    <li><a href=\\\'../user/signup\\\')>Signup</a></li>\\n                    <li><a href="/user/signin">Signin</a></li>\\n                </ul>\\n            </li>\\n        </ul>-->\\n\', escape=False)\nresponse.write(\'\\n<script>\\n    ( function( $ ) {\\n$( document ).ready(function() {\\n$(\\\'#cssmenu > ul > li > a\\\').click(function() {\\n  $(\\\'#cssmenu li\\\').removeClass(\\\'active\\\');\\n  $(this).closest(\\\'li\\\').addClass(\\\'active\\\');\\t\\n  var checkElement = $(this).next();\\n  if((checkElement.is(\\\'ul\\\')) && (checkElement.is(\\\':visible\\\'))) {\\n    $(this).closest(\\\'li\\\').removeClass(\\\'active\\\');\\n    checkElement.slideUp(\\\'normal\\\');\\n  }\\n  if((checkElement.is(\\\'ul\\\')) && (!checkElement.is(\\\':visible\\\'))) {\\n    $(\\\'#cssmenu ul ul:visible\\\').slideUp(\\\'normal\\\');\\n    checkElement.slideDown(\\\'normal\\\');\\n  }\\n  if($(this).closest(\\\'li\\\').find(\\\'ul\\\').children().length == 0) {\\n    return true;\\n  } else {\\n    return false;\\t\\n  }\\t\\t\\n});\\n});\\n} )( jQuery );\\n</script>\\n<style>\\n    @import url(http://fonts.googleapis.com/css?family=Ubuntu:300,400,500,700);\\n\\n@import url(http://fonts.googleapis.com/css?family=Open+Sans:400,600,300);\\n@charset "UTF-8";\\n/* Base Styles */\\n#cssmenu,\\n#cssmenu ul,\\n#cssmenu li,\\n#cssmenu a {\\n  margin: 0;\\n  padding: 0;\\n  border: 0;\\n  list-style: none;\\n  font-weight: normal;\\n  text-decoration: none;\\n  line-height: 1;\\n  font-family: \\\'Open Sans\\\', sans-serif;\\n  font-size: 14px;\\n  position: relative;\\n}\\n#cssmenu {\\n  width: 250px;\\n  border-bottom: 4px solid #656659;\\n  -webkit-border-radius: 3px;\\n  -moz-border-radius: 3px;\\n  border-radius: 3px;\\n}\\n#cssmenu a {\\n  line-height: 1.3;\\n}\\n#cssmenu > ul > li:first-child {\\n  background: #66665e;\\n  background: -moz-linear-gradient(#66665e 0%, #45463d 100%);\\n  background: -webkit-gradient(linear, left top, left bottom, color-stop(0%, #66665e), color-stop(100%, #45463d));\\n  background: -webkit-linear-gradient(#66665e 0%, #45463d 100%);\\n  background: linear-gradient(#66665e 0%, #45463d 100%);\\n  border: 1px solid #45463d;\\n  -webkit-border-radius: 3px 3px 0 0;\\n  -moz-border-radius: 3px 3px 0 0;\\n  border-radius: 3px 3px 0 0;\\n}\\n#cssmenu > ul > li:first-child > a {\\n  padding: 15px 10px;\\n  background: url(/library/static/images/pattern.png) top left repeat;\\n  border: none;\\n  border-top: 1px solid #818176;\\n  -webkit-border-radius: 3px 3px 0 0;\\n  -moz-border-radius: 3px 3px 0 0;\\n  border-radius: 3px 3px 0 0;\\n  font-family: \\\'Ubuntu\\\', sans-serif;\\n  text-align: center;\\n  font-size: 18px;\\n  font-weight: 300;\\n  text-shadow: 0 -1px 1px #000000;\\n}\\n#cssmenu > ul > li:first-child > a > span {\\n  padding: 0;\\n}\\n#cssmenu > ul > li:first-child:hover {\\n  background: #66665e;\\n  background: -moz-linear-gradient(#66665e 0%, #45463d 100%);\\n  background: -webkit-gradient(linear, left top, left bottom, color-stop(0%, #66665e), color-stop(100%, #45463d));\\n  background: -webkit-linear-gradient(#66665e 0%, #45463d 100%);\\n  background: linear-gradient(#66665e 0%, #45463d 100%);\\n}\\n#cssmenu > ul > li {\\n  background: #e94f31;\\n  background: -moz-linear-gradient(#e94f31 0%, #d13516 100%);\\n  background: -webkit-gradient(linear, left top, left bottom, color-stop(0%, #e94f31), color-stop(100%, #d13516));\\n  background: -webkit-linear-gradient(#e94f31 0%, #d13516 100%);\\n  background: linear-gradient(#e94f31 0%, #d13516 100%);\\n}\\n#cssmenu > ul > li:hover {\\n  background: #e84323;\\n  background: -moz-linear-gradient(#e84323 0%, #c33115 100%);\\n  background: -webkit-gradient(linear, left top, left bottom, color-stop(0%, #e84323), color-stop(100%, #c33115));\\n  background: -webkit-linear-gradient(#e84323 0%, #c33115 100%);\\n  background: linear-gradient(#e84323 0%, #c33115 100%);\\n}\\n#cssmenu > ul > li > a {\\n  font-size: 14px;\\n  display: block;\\n  background: url(/library/static/images/pattern.png) top left repeat;\\n  color: #ffffff;\\n  border: 1px solid #ba2f14;\\n  border-top: none;\\n  text-shadow: 0 -1px 1px #751d0c;\\n}\\n#cssmenu > ul > li > a > span {\\n  display: block;\\n  padding: 12px 10px;\\n  -webkit-border-radius: 4px;\\n  -moz-border-radius: 4px;\\n  border-radius: 4px;\\n}\\n#cssmenu > ul > li > a:hover {\\n  text-decoration: none;\\n}\\n#cssmenu > ul > li.active {\\n  border-bottom: none;\\n}\\n#cssmenu > ul > li.has-sub > a span {\\n  background: url(/library/static/images/icon_plus.png) 96% center no-repeat;\\n}\\n#cssmenu > ul > li.has-sub.active > a span {\\n  background: url(/library/static/images/icon_minus.png) 96% center no-repeat;\\n}\\n/* Sub menu */\\n#cssmenu ul ul {\\n  display: none;\\n  background: #fff;\\n  border-right: 1px solid #a2a194;\\n  border-left: 1px solid #a2a194;\\n}\\n#cssmenu ul ul li {\\n  padding: 0;\\n  border-bottom: 1px solid #d4d4d4;\\n  border-top: none;\\n  background: #f7f7f7;\\n  background: -moz-linear-gradient(#f7f7f7 0%, #ececec 100%);\\n  background: -webkit-gradient(linear, left top, left bottom, color-stop(0%, #f7f7f7), color-stop(100%, #ececec));\\n  background: -webkit-linear-gradient(#f7f7f7 0%, #ececec 100%);\\n  background: linear-gradient(#f7f7f7 0%, #ececec 100%);\\n}\\n#cssmenu ul ul li:last-child {\\n  border-bottom: none;\\n}\\n#cssmenu ul ul a {\\n  padding: 10px 10px 10px 25px;\\n  display: block;\\n  color: #676767;\\n  font-size: 12px;\\n  font-weight: normal;\\n}\\n#cssmenu ul ul a:before {\\n  content: "\\xc2\\xbb";\\n  position: absolute;\\n  left: 10px;\\n  color: #e94f31;\\n}\\n#cssmenu ul ul a:hover {\\n  color: #e94f31;\\n}\\n</style>\\n<div id="content-inner">\\n          \\n          \', escape=False)\nif request.controller=="default" and request.function=="about" :\n    response.write(\'\\n\\t\\t  \', escape=False)\n    response.write(\'\\n\', escape=False)\n    response.write(\'\\n\\t\\t     \', escape=False)\n    response.write(\'<div class="content-left"> <img src="/library/static/imgs/mugla3.jpg" alt="NYC Photo" />\\n            <p>MU\\xc4\\x9eLA<br />\\n              <span>Mu\\xc4\\x9fla in the fall 2015</span></p>\\n          </div>\\n          <div class="content-right">\\n            <h2>\', escape=False)\n    response.write(\'</h2>\\n            \\n            <p class="intro"></p>\\n            <!--<p><a href="http://www.slicendiceit.com">slice n dice</a></p>-->\\n            <!--<p class="end-story-links"><a href="#">14 Comments</a> | <a href="#">Read on...</a></p>-->\\n          </div>\\n          <div class="content-full">\\n            <!--<h2>Full page blog provides plenty of space</h2>-->\\n            \\n            <p class="intro"></p>\\n            <p></p>\\n            <img src="/library/static/imgs/muglaautumn2.jpg" alt="" class="content-img" />\\n            <p class="intro"></p>\\n            <p></p>\\n            <p></p>\\n            <!--<p class="end-story-links"><a href="#">37 Comments</a> | <a href="#">Read on...</a></p>-->\\n\\t\\t\\t\\n</div>\\n\', escape=False)\n    response.write(\'\\n\\t\\t  \\n\\t\\t  \', escape=False)\nelse:\n    response.write(\' \', escape=False)\n    response.write(\'\\n\', escape=False)\n    response.write(\'\\n\\t\\t  \\n\\t\\t  \', escape=False)\n    pass\nresponse.write(\'\\n        </div>\\n      </div>\\n\\t  <div id="sidebar">\\n          \\t\\n       <div id="logo"></div>\\n            \', escape=False)\nif session.user:\n    response.write(\'\\n              <p style="margin-left: 20px; font-size: 18px; font-family: sans-serif; color: #978f7c; text-decoration: none;">Hello \', escape=False)\n    response.write(A(user.username,\n    _href=URL("account", args=[user.id])))\n    response.write(\'. </br>\\n              To logout \', escape=False)\n    response.write(A("click",\n    _href=URL("user", "logout")))\n    response.write(\'.   </p>      \\n            \', escape=False)\nelse:\n    response.write(\'  \\n               <form style="margin-left: 20px; font-size: 18px; font-family: sans-serif; color: #978f7c; text-decoration: none;" action="\', escape=False)\n    response.write(URL(\'user\', \'signin\'))\n    response.write(\'" method="post">\\n                 Username: <input type="text" name="username" size=22><br>\\n                 Password: <input type="password" name="pw" size=22><br>\\n                  <input style="width: 173px;font-size: 18px; font-family: sans-serif; color: #978f7c; text-decoration: none;" type="submit" value="Log in">\\n              </form>\\n              \\n              \', escape=False)\n    pass\nresponse.write(\' \\n          <!--\', escape=False)\nif response.flash:\n    response.write(\'<div class="w2p_flash_signin alert alert-dismissable">\', escape=False)\n    response.write(A(response.flash, _href=URL("default", "index")))\n    response.write(\'</div> \', escape=False)\n    pass\nresponse.write(\'\\n          \', escape=False)\nif request.controller == "default" and request.function=="about" :\n    response.write(\'\\n\\t        \', escape=False)\n    response.write(\'<h4>Know more about our town</h4>\\n        <ul class="side-nav">\\n          <li><a href="default/history">History of Mu\\xc4\\x9fla</a></li>\\n          <li><a href="default/travelling">Travelling</a></li>\\n          <li><a href="https://en.wikipedia.org/wiki/Mu%C4%9Fla">Articles about Mu\\xc4\\x9fla</a></li>\\n          <li><a href="http://www.mu.edu.tr/">Mu\\xc4\\x9fla S\\xc4\\xb1tk\\xc4\\xb1 Ko\\xc3\\xa7man University</a></li>\\n        </ul>\\n\', escape=False)\n    response.write(\'\\n\\t\\t  \\n          \', escape=False)\nelse:\n    response.write(\'<h4>Offerings</h4>\\n        <ul>\\n          \\n          <li><a href="default/series">Series</a></li>\\n          <li><a href="default/lib">History of Library</a></li>\\n        </ul>\\n        <h4>Quotes</h4>\\n        <ul >\\n          <li><a href="default/shakespeare_quotes">Shakespeare</a></li>\\n          <li><a href="default/bestseller_quotes">From Bestsellers</a></li>\\n        </ul>\\n\', escape=False)\n    response.write(\'\\n           \\n            \\n      \', escape=False)\n    pass\nresponse.write("-->\\n<div id=\'cssmenu\'>\\n<ul>\\n   <li class=\'active\'><a href=\'", escape=False)\nresponse.write(URL(\'index\'))\nresponse.write("\'><span>Home</span></a></li>\\n   <li class=\'active\'><a href=\'", escape=False)\nresponse.write(URL(\'user\' , \'signup\'))\nresponse.write("\'><span>SignUP</span></a></li>\\n   <li class=\'has-sub\'><a href=\'#\'><span>Some Classics</span></a>\\n      <ul>\\n         <li><a href=\'#\'><span>Jungle Book</span></a></li>\\n         <li><a href=\'#\'><span>Oliver Twist</span></a></li>\\n         <li class=\'last\'><a href=\'#\'><span>Product 3</span></a></li>\\n      </ul>\\n   </li>\\n   <li class=\'has-sub\'><a href=\'#\'><span>About</span></a>\\n      <ul>\\n         <li><a href=\'#\'><span>Company</span></a></li>\\n         <li class=\'last\'><a href=\'#\'><span>Contact</span></a></li>\\n      </ul>\\n   </li>\\n   <li class=\'last\'><a href=\'#\'><span>Contact</span></a></li>\\n</ul>\\n</div>\\n    </div>\\n", escape=False)\nresponse.write(\'<div id="footer">\\n\\n\\n      <ul id="footer-nav">\\n\\t  \', escape=False)\nmenu2 = [("index", "Home"),("about", "About"),("classics","Classics"),\n("links","Links"),("contact","Contact Us"),\n("appguide","AppGuide")]\nfor (path1,text1) in menu2:\n    if request.controller == "default" and request.function== path1:\n        response.write(LI(A(text1, _href=URL(path1))))\n    elif request.controller == "default" and path1 != "index" and path1 != "about" and path1 != "classics" and path1 != "top100" and path1 != "shakespeare_bests" and path1 != "appguide":\n        response.write(LI(A(text1, _href=URL("error_page"))))\n    else:\n        response.write(LI(A(text1, _href=URL(path1))))\n        response.write(\'\\n\\t  \', escape=False)\n        pass\n    response.write(\'\\n\\t  \', escape=False)\n    pass\nresponse.write(\'\\n\\t  \', escape=False)\npass\nresponse.write(\'\\n\\n      </ul>\\n      <p class="copyright">Copyright 2016 Coding by Paawan & Satyam</p>\\n    </div>\\n  </div>\\n</div>\\n\\n\\n<!-- The javascript =============================================\\n       (Placed at the end of the document so the pages load faster) -->\\n\\n  <script src="\', escape=False)\nresponse.write(URL(\'static\',\'js/bootstrap.min.js\'))\nresponse.write(\'"></script>\\n  <link rel="\', escape=False)\nresponse.write(URL(\'static\',\'css/bootstrap.min.css\'))\nresponse.write(\'">\\n  <script src="https://ajax.googleapis.com/ajax/libs/jquery/1.11.3/jquery.min.js"></script>\\n  <script src="\', escape=False)\nresponse.write(URL(\'static\',\'js/web2py_bootstrap.js\'))\nresponse.write(\'"></script>\\n  \', escape=False)\nif response.google_analytics_id:\n    response.write(\'\\n    <script src="\', escape=False)\n    response.write(URL(\'static\',\'js/analytics.js\'))\n    response.write(\'"></script>\\n    <script type="text/javascript">\\n    analytics.initialize({\\n      \\\'Google Analytics\\\':{trackingId:\\\'\', escape=False)\n    response.write(response.google_analytics_id)\n    response.write("\'}\\n    });</script>\\n  ", escape=False)\n    pass\nresponse.write(\'\\n</body>\\n</html>\\n\', escape=False)\nresponse.write(\'\\n\', escape=False)'
p7
sS'snapshot'
p8
(dp9
S'exception'
p10
(dp11
S'__hash__'
p12
S"<method-wrapper '__hash__' of exceptions.NameError object>"
p13
sS'__setattr__'
p14
S"<method-wrapper '__setattr__' of exceptions.NameError object>"
p15
sS'__reduce_ex__'
p16
S'<built-in method __reduce_ex__ of exceptions.NameError object>'
p17
sS'__getslice__'
p18
S"<method-wrapper '__getslice__' of exceptions.NameError object>"
p19
sS'__getitem__'
p20
S"<method-wrapper '__getitem__' of exceptions.NameError object>"
p21
sS'__setstate__'
p22
S'<built-in method __setstate__ of exceptions.NameError object>'
p23
sS'args'
p24
S'("name \'page_title\' is not defined",)'
p25
sS'__reduce__'
p26
S'<built-in method __reduce__ of exceptions.NameError object>'
p27
sS'__str__'
p28
S"<method-wrapper '__str__' of exceptions.NameError object>"
p29
sS'__format__'
p30
S'<built-in method __format__ of exceptions.NameError object>'
p31
sS'__getattribute__'
p32
S"<method-wrapper '__getattribute__' of exceptions.NameError object>"
p33
sS'__class__'
p34
S"<type 'exceptions.NameError'>"
p35
sS'__unicode__'
p36
S'<built-in method __unicode__ of exceptions.NameError object>'
p37
sS'__delattr__'
p38
S"<method-wrapper '__delattr__' of exceptions.NameError object>"
p39
sS'__subclasshook__'
p40
S'<built-in method __subclasshook__ of type object>'
p41
sS'__repr__'
p42
S"<method-wrapper '__repr__' of exceptions.NameError object>"
p43
sS'__dict__'
p44
S'{}'
p45
sS'__sizeof__'
p46
S'<built-in method __sizeof__ of exceptions.NameError object>'
p47
sS'__doc__'
p48
S"'Name not found globally.'"
p49
sS'__init__'
p50
S"<method-wrapper '__init__' of exceptions.NameError object>"
p51
sS'__new__'
p52
S'<built-in method __new__ of type object>'
p53
ssS'evalue'
p54
S"name 'page_title' is not defined"
p55
sS'request'
p56
cgluon.html
XML_unpickle
p57
(S's7\x95\x00\x00<div><table><tr><td style="font-weight:bold;vertical-align:top;">ajax</td><td style="vertical-align:top;">:</td><td><div>False</div></td></tr><tr><td style="font-weight:bold;vertical-align:top;">application</td><td style="vertical-align:top;">:</td><td><div>library</div></td></tr><tr><td style="font-weight:bold;vertical-align:top;">args</td><td style="vertical-align:top;">:</td><td><div><table></table></div></td></tr><tr><td style="font-weight:bold;vertical-align:top;">cid</td><td style="vertical-align:top;">:</td><td><div>None</div></td></tr><tr><td style="font-weight:bold;vertical-align:top;">client</td><td style="vertical-align:top;">:</td><td><div>127.0.0.1</div></td></tr><tr><td style="font-weight:bold;vertical-align:top;">controller</td><td style="vertical-align:top;">:</td><td><div>user</div></td></tr><tr><td style="font-weight:bold;vertical-align:top;">cookies</td><td style="vertical-align:top;">:</td><td><div><table><tr><td style="font-weight:bold;vertical-align:top;">session_id_10</td><td style="vertical-align:top;">:</td><td><div>127.0.0.1-c5215d2e-51f1-488d-817a-5861ad17a605<table><tr><td style="font-weight:bold;vertical-align:top;">comment</td><td style="vertical-align:top;">:</td><td><div></div></td></tr><tr><td style="font-weight:bold;vertical-align:top;">domain</td><td style="vertical-align:top;">:</td><td><div></div></td></tr><tr><td style="font-weight:bold;vertical-align:top;">expires</td><td style="vertical-align:top;">:</td><td><div></div></td></tr><tr><td style="font-weight:bold;vertical-align:top;">httponly</td><td style="vertical-align:top;">:</td><td><div></div></td></tr><tr><td style="font-weight:bold;vertical-align:top;">max-age</td><td style="vertical-align:top;">:</td><td><div></div></td></tr><tr><td style="font-weight:bold;vertical-align:top;">path</td><td style="vertical-align:top;">:</td><td><div></div></td></tr><tr><td style="font-weight:bold;vertical-align:top;">secure</td><td style="vertical-align:top;">:</td><td><div></div></td></tr><tr><td style="font-weight:bold;vertical-align:top;">version</td><td style="vertical-align:top;">:</td><td><div></div></td></tr></table></div></td></tr><tr><td style="font-weight:bold;vertical-align:top;">session_id_11</td><td style="vertical-align:top;">:</td><td><div>127.0.0.1-8194ce75-8993-4c58-9f77-cb959eeb6e5b<table><tr><td style="font-weight:bold;vertical-align:top;">comment</td><td style="vertical-align:top;">:</td><td><div></div></td></tr><tr><td style="font-weight:bold;vertical-align:top;">domain</td><td style="vertical-align:top;">:</td><td><div></div></td></tr><tr><td style="font-weight:bold;vertical-align:top;">expires</td><td style="vertical-align:top;">:</td><td><div></div></td></tr><tr><td style="font-weight:bold;vertical-align:top;">httponly</td><td style="vertical-align:top;">:</td><td><div></div></td></tr><tr><td style="font-weight:bold;vertical-align:top;">max-age</td><td style="vertical-align:top;">:</td><td><div></div></td></tr><tr><td style="font-weight:bold;vertical-align:top;">path</td><td style="vertical-align:top;">:</td><td><div></div></td></tr><tr><td style="font-weight:bold;vertical-align:top;">secure</td><td style="vertical-align:top;">:</td><td><div></div></td></tr><tr><td style="font-weight:bold;vertical-align:top;">version</td><td style="vertical-align:top;">:</td><td><div></div></td></tr></table></div></td></tr><tr><td style="font-weight:bold;vertical-align:top;">session_id_12</td><td style="vertical-align:top;">:</td><td><div>127.0.0.1-09c285f7-fa01-450f-8b7c-b4d6267e9688<table><tr><td style="font-weight:bold;vertical-align:top;">comment</td><td style="vertical-align:top;">:</td><td><div></div></td></tr><tr><td style="font-weight:bold;vertical-align:top;">domain</td><td style="vertical-align:top;">:</td><td><div></div></td></tr><tr><td style="font-weight:bold;vertical-align:top;">expires</td><td style="vertical-align:top;">:</td><td><div></div></td></tr><tr><td style="font-weight:bold;vertical-align:top;">httponly</td><td style="vertical-align:top;">:</td><td><div></div></td></tr><tr><td style="font-weight:bold;vertical-align:top;">max-age</td><td style="vertical-align:top;">:</td><td><div></div></td></tr><tr><td style="font-weight:bold;vertical-align:top;">path</td><td style="vertical-align:top;">:</td><td><div></div></td></tr><tr><td style="font-weight:bold;vertical-align:top;">secure</td><td style="vertical-align:top;">:</td><td><div></div></td></tr><tr><td style="font-weight:bold;vertical-align:top;">version</td><td style="vertical-align:top;">:</td><td><div></div></td></tr></table></div></td></tr><tr><td style="font-weight:bold;vertical-align:top;">session_id_5</td><td style="vertical-align:top;">:</td><td><div>127.0.0.1-305a4b9d-5e50-4e86-83dd-40a5c32dee90<table><tr><td style="font-weight:bold;vertical-align:top;">comment</td><td style="vertical-align:top;">:</td><td><div></div></td></tr><tr><td style="font-weight:bold;vertical-align:top;">domain</td><td style="vertical-align:top;">:</td><td><div></div></td></tr><tr><td style="font-weight:bold;vertical-align:top;">expires</td><td style="vertical-align:top;">:</td><td><div></div></td></tr><tr><td style="font-weight:bold;vertical-align:top;">httponly</td><td style="vertical-align:top;">:</td><td><div></div></td></tr><tr><td style="font-weight:bold;vertical-align:top;">max-age</td><td style="vertical-align:top;">:</td><td><div></div></td></tr><tr><td style="font-weight:bold;vertical-align:top;">path</td><td style="vertical-align:top;">:</td><td><div></div></td></tr><tr><td style="font-weight:bold;vertical-align:top;">secure</td><td style="vertical-align:top;">:</td><td><div></div></td></tr><tr><td style="font-weight:bold;vertical-align:top;">version</td><td style="vertical-align:top;">:</td><td><div></div></td></tr></table></div></td></tr><tr><td style="font-weight:bold;vertical-align:top;">session_id_7</td><td style="vertical-align:top;">:</td><td><div>127.0.0.1-1e54776b-68b9-4620-b262-3586cc028658<table><tr><td style="font-weight:bold;vertical-align:top;">comment</td><td style="vertical-align:top;">:</td><td><div></div></td></tr><tr><td style="font-weight:bold;vertical-align:top;">domain</td><td style="vertical-align:top;">:</td><td><div></div></td></tr><tr><td style="font-weight:bold;vertical-align:top;">expires</td><td style="vertical-align:top;">:</td><td><div></div></td></tr><tr><td style="font-weight:bold;vertical-align:top;">httponly</td><td style="vertical-align:top;">:</td><td><div></div></td></tr><tr><td style="font-weight:bold;vertical-align:top;">max-age</td><td style="vertical-align:top;">:</td><td><div></div></td></tr><tr><td style="font-weight:bold;vertical-align:top;">path</td><td style="vertical-align:top;">:</td><td><div></div></td></tr><tr><td style="font-weight:bold;vertical-align:top;">secure</td><td style="vertical-align:top;">:</td><td><div></div></td></tr><tr><td style="font-weight:bold;vertical-align:top;">version</td><td style="vertical-align:top;">:</td><td><div></div></td></tr></table></div></td></tr><tr><td style="font-weight:bold;vertical-align:top;">session_id_8</td><td style="vertical-align:top;">:</td><td><div>2:8071ed4c-4d67-42cd-b7d1-6d46bc327a86<table><tr><td style="font-weight:bold;vertical-align:top;">comment</td><td style="vertical-align:top;">:</td><td><div></div></td></tr><tr><td style="font-weight:bold;vertical-align:top;">domain</td><td style="vertical-align:top;">:</td><td><div></div></td></tr><tr><td style="font-weight:bold;vertical-align:top;">expires</td><td style="vertical-align:top;">:</td><td><div></div></td></tr><tr><td style="font-weight:bold;vertical-align:top;">httponly</td><td style="vertical-align:top;">:</td><td><div></div></td></tr><tr><td style="font-weight:bold;vertical-align:top;">max-age</td><td style="vertical-align:top;">:</td><td><div></div></td></tr><tr><td style="font-weight:bold;vertical-align:top;">path</td><td style="vertical-align:top;">:</td><td><div></div></td></tr><tr><td style="font-weight:bold;vertical-align:top;">secure</td><td style="vertical-align:top;">:</td><td><div></div></td></tr><tr><td style="font-weight:bold;vertical-align:top;">version</td><td style="vertical-align:top;">:</td><td><div></div></td></tr></table></div></td></tr><tr><td style="font-weight:bold;vertical-align:top;">session_id_9</td><td style="vertical-align:top;">:</td><td><div>127.0.0.1-b698a94d-452a-41cc-a987-1f927819939f<table><tr><td style="font-weight:bold;vertical-align:top;">comment</td><td style="vertical-align:top;">:</td><td><div></div></td></tr><tr><td style="font-weight:bold;vertical-align:top;">domain</td><td style="vertical-align:top;">:</td><td><div></div></td></tr><tr><td style="font-weight:bold;vertical-align:top;">expires</td><td style="vertical-align:top;">:</td><td><div></div></td></tr><tr><td style="font-weight:bold;vertical-align:top;">httponly</td><td style="vertical-align:top;">:</td><td><div></div></td></tr><tr><td style="font-weight:bold;vertical-align:top;">max-age</td><td style="vertical-align:top;">:</td><td><div></div></td></tr><tr><td style="font-weight:bold;vertical-align:top;">path</td><td style="vertical-align:top;">:</td><td><div></div></td></tr><tr><td style="font-weight:bold;vertical-align:top;">secure</td><td style="vertical-align:top;">:</td><td><div></div></td></tr><tr><td style="font-weight:bold;vertical-align:top;">version</td><td style="vertical-align:top;">:</td><td><div></div></td></tr></table></div></td></tr><tr><td style="font-weight:bold;vertical-align:top;">session_id_admin</td><td style="vertical-align:top;">:</td><td><div>127.0.0.1-f32b8256-9074-4c2e-8c6e-abdb9864afd5<table><tr><td style="font-weight:bold;vertical-align:top;">comment</td><td style="vertical-align:top;">:</td><td><div></div></td></tr><tr><td style="font-weight:bold;vertical-align:top;">domain</td><td style="vertical-align:top;">:</td><td><div></div></td></tr><tr><td style="font-weight:bold;vertical-align:top;">expires</td><td style="vertical-align:top;">:</td><td><div></div></td></tr><tr><td style="font-weight:bold;vertical-align:top;">httponly</td><td style="vertical-align:top;">:</td><td><div></div></td></tr><tr><td style="font-weight:bold;vertical-align:top;">max-age</td><td style="vertical-align:top;">:</td><td><div></div></td></tr><tr><td style="font-weight:bold;vertical-align:top;">path</td><td style="vertical-align:top;">:</td><td><div></div></td></tr><tr><td style="font-weight:bold;vertical-align:top;">secure</td><td style="vertical-align:top;">:</td><td><div></div></td></tr><tr><td style="font-weight:bold;vertical-align:top;">version</td><td style="vertical-align:top;">:</td><td><div></div></td></tr></table></div></td></tr><tr><td style="font-weight:bold;vertical-align:top;">session_id_amazon</td><td style="vertical-align:top;">:</td><td><div>127.0.0.1-11167884-a1f8-4e62-b56a-2da66c6e37a6<table><tr><td style="font-weight:bold;vertical-align:top;">comment</td><td style="vertical-align:top;">:</td><td><div></div></td></tr><tr><td style="font-weight:bold;vertical-align:top;">domain</td><td style="vertical-align:top;">:</td><td><div></div></td></tr><tr><td style="font-weight:bold;vertical-align:top;">expires</td><td style="vertical-align:top;">:</td><td><div></div></td></tr><tr><td style="font-weight:bold;vertical-align:top;">httponly</td><td style="vertical-align:top;">:</td><td><div></div></td></tr><tr><td style="font-weight:bold;vertical-align:top;">max-age</td><td style="vertical-align:top;">:</td><td><div></div></td></tr><tr><td style="font-weight:bold;vertical-align:top;">path</td><td style="vertical-align:top;">:</td><td><div></div></td></tr><tr><td style="font-weight:bold;vertical-align:top;">secure</td><td style="vertical-align:top;">:</td><td><div></div></td></tr><tr><td style="font-weight:bold;vertical-align:top;">version</td><td style="vertical-align:top;">:</td><td><div></div></td></tr></table></div></td></tr><tr><td style="font-weight:bold;vertical-align:top;">session_id_library</td><td style="vertical-align:top;">:</td><td><div>127.0.0.1-a18084ed-1239-420f-9a10-2517a5e3b263<table><tr><td style="font-weight:bold;vertical-align:top;">comment</td><td style="vertical-align:top;">:</td><td><div></div></td></tr><tr><td style="font-weight:bold;vertical-align:top;">domain</td><td style="vertical-align:top;">:</td><td><div></div></td></tr><tr><td style="font-weight:bold;vertical-align:top;">expires</td><td style="vertical-align:top;">:</td><td><div></div></td></tr><tr><td style="font-weight:bold;vertical-align:top;">httponly</td><td style="vertical-align:top;">:</td><td><div></div></td></tr><tr><td style="font-weight:bold;vertical-align:top;">max-age</td><td style="vertical-align:top;">:</td><td><div></div></td></tr><tr><td style="font-weight:bold;vertical-align:top;">path</td><td style="vertical-align:top;">:</td><td><div></div></td></tr><tr><td style="font-weight:bold;vertical-align:top;">secure</td><td style="vertical-align:top;">:</td><td><div></div></td></tr><tr><td style="font-weight:bold;vertical-align:top;">version</td><td style="vertical-align:top;">:</td><td><div></div></td></tr></table></div></td></tr><tr><td style="font-weight:bold;vertical-align:top;">session_id_project</td><td style="vertical-align:top;">:</td><td><div>127.0.0.1-60159f4e-e075-4dc9-8736-f65160383dbc<table><tr><td style="font-weight:bold;vertical-align:top;">comment</td><td style="vertical-align:top;">:</td><td><div></div></td></tr><tr><td style="font-weight:bold;vertical-align:top;">domain</td><td style="vertical-align:top;">:</td><td><div></div></td></tr><tr><td style="font-weight:bold;vertical-align:top;">expires</td><td style="vertical-align:top;">:</td><td><div></div></td></tr><tr><td style="font-weight:bold;vertical-align:top;">httponly</td><td style="vertical-align:top;">:</td><td><div></div></td></tr><tr><td style="font-weight:bold;vertical-align:top;">max-age</td><td style="vertical-align:top;">:</td><td><div></div></td></tr><tr><td style="font-weight:bold;vertical-align:top;">path</td><td style="vertical-align:top;">:</td><td><div></div></td></tr><tr><td style="font-weight:bold;vertical-align:top;">secure</td><td style="vertical-align:top;">:</td><td><div></div></td></tr><tr><td style="font-weight:bold;vertical-align:top;">version</td><td style="vertical-align:top;">:</td><td><div></div></td></tr></table></div></td></tr><tr><td style="font-weight:bold;vertical-align:top;">session_id_web2social</td><td style="vertical-align:top;">:</td><td><div>127.0.0.1-d3b80340-f6ce-4b7c-9e22-2309c4e07098<table><tr><td style="font-weight:bold;vertical-align:top;">comment</td><td style="vertical-align:top;">:</td><td><div></div></td></tr><tr><td style="font-weight:bold;vertical-align:top;">domain</td><td style="vertical-align:top;">:</td><td><div></div></td></tr><tr><td style="font-weight:bold;vertical-align:top;">expires</td><td style="vertical-align:top;">:</td><td><div></div></td></tr><tr><td style="font-weight:bold;vertical-align:top;">httponly</td><td style="vertical-align:top;">:</td><td><div></div></td></tr><tr><td style="font-weight:bold;vertical-align:top;">max-age</td><td style="vertical-align:top;">:</td><td><div></div></td></tr><tr><td style="font-weight:bold;vertical-align:top;">path</td><td style="vertical-align:top;">:</td><td><div></div></td></tr><tr><td style="font-weight:bold;vertical-align:top;">secure</td><td style="vertical-align:top;">:</td><td><div></div></td></tr><tr><td style="font-weight:bold;vertical-align:top;">version</td><td style="vertical-align:top;">:</td><td><div></div></td></tr></table></div></td></tr><tr><td style="font-weight:bold;vertical-align:top;">session_id_welcome</td><td style="vertical-align:top;">:</td><td><div>127.0.0.1-18a84d81-a8fd-40fa-8386-26693fcd3d57<table><tr><td style="font-weight:bold;vertical-align:top;">comment</td><td style="vertical-align:top;">:</td><td><div></div></td></tr><tr><td style="font-weight:bold;vertical-align:top;">domain</td><td style="vertical-align:top;">:</td><td><div></div></td></tr><tr><td style="font-weight:bold;vertical-align:top;">expires</td><td style="vertical-align:top;">:</td><td><div></div></td></tr><tr><td style="font-weight:bold;vertical-align:top;">httponly</td><td style="vertical-align:top;">:</td><td><div></div></td></tr><tr><td style="font-weight:bold;vertical-align:top;">max-age</td><td style="vertical-align:top;">:</td><td><div></div></td></tr><tr><td style="font-weight:bold;vertical-align:top;">path</td><td style="vertical-align:top;">:</td><td><div></div></td></tr><tr><td style="font-weight:bold;vertical-align:top;">secure</td><td style="vertical-align:top;">:</td><td><div></div></td></tr><tr><td style="font-weight:bold;vertical-align:top;">version</td><td style="vertical-align:top;">:</td><td><div></div></td></tr></table></div></td></tr></table></div></td></tr><tr><td style="font-weight:bold;vertical-align:top;">env</td><td style="vertical-align:top;">:</td><td><div><table><tr><td style="font-weight:bold;vertical-align:top;">HTTP_ACCEPT</td><td style="vertical-align:top;">:</td><td><div>text/html,application/xhtml+xml,application/xml;q=0.9,image/webp,*/*;q=0.8</div></td></tr><tr><td style="font-weight:bold;vertical-align:top;">HTTP_ACCEPT_ENCODING</td><td style="vertical-align:top;">:</td><td><div>gzip, deflate, sdch</div></td></tr><tr><td style="font-weight:bold;vertical-align:top;">HTTP_ACCEPT_LANGUAGE</td><td style="vertical-align:top;">:</td><td><div>en-US,en;q=0.8</div></td></tr><tr><td style="font-weight:bold;vertical-align:top;">HTTP_CACHE_CONTROL</td><td style="vertical-align:top;">:</td><td><div>max-age=0</div></td></tr><tr><td style="font-weight:bold;vertical-align:top;">HTTP_CONNECTION</td><td style="vertical-align:top;">:</td><td><div>keep-alive</div></td></tr><tr><td style="font-weight:bold;vertical-align:top;">HTTP_COOKIE</td><td style="vertical-align:top;">:</td><td><div>session_id_5=127.0.0.1-305a4b9d-5e50-4e86-83dd-40a5c32dee90; session_id_project=127.0.0.1-60159f4e-e075-4dc9-8736-f65160383dbc; session_id_8=&quot;2:8071ed4c-4d67-42cd-b7d1-6d46bc327a86&quot;; session_id_7=127.0.0.1-1e54776b-68b9-4620-b262-3586cc028658; session_id_9=127.0.0.1-b698a94d-452a-41cc-a987-1f927819939f; session_id_11=127.0.0.1-8194ce75-8993-4c58-9f77-cb959eeb6e5b; session_id_12=127.0.0.1-09c285f7-fa01-450f-8b7c-b4d6267e9688; session_id_amazon=127.0.0.1-11167884-a1f8-4e62-b56a-2da66c6e37a6; session_id_10=127.0.0.1-c5215d2e-51f1-488d-817a-5861ad17a605; session_id_web2social=127.0.0.1-d3b80340-f6ce-4b7c-9e22-2309c4e07098; session_id_welcome=127.0.0.1-18a84d81-a8fd-40fa-8386-26693fcd3d57; session_id_library=127.0.0.1-a18084ed-1239-420f-9a10-2517a5e3b263; session_id_admin=127.0.0.1-f32b8256-9074-4c2e-8c6e-abdb9864afd5</div></td></tr><tr><td style="font-weight:bold;vertical-align:top;">HTTP_HOST</td><td style="vertical-align:top;">:</td><td><div>127.0.0.1:8000</div></td></tr><tr><td style="font-weight:bold;vertical-align:top;">HTTP_UPGRADE_INSECURE_REQUESTS</td><td style="vertical-align:top;">:</td><td><div>1</div></td></tr><tr><td style="font-weight:bold;vertical-align:top;">HTTP_USER_AGENT</td><td style="vertical-align:top;">:</td><td><div>Mozilla/5.0 (X11; Linux x86_64) AppleWebKit/537.36 (KHTML, like Gecko) Ubuntu Chromium/49.0.2623.108 Chrome/49.0.2623.108 Safari/537.36</div></td></tr><tr><td style="font-weight:bold;vertical-align:top;">PATH_INFO</td><td style="vertical-align:top;">:</td><td><div>/library/user/signin</div></td></tr><tr><td style="font-weight:bold;vertical-align:top;">QUERY_STRING</td><td style="vertical-align:top;">:</td><td><div></div></td></tr><tr><td style="font-weight:bold;vertical-align:top;">REMOTE_ADDR</td><td style="vertical-align:top;">:</td><td><div>127.0.0.1</div></td></tr><tr><td style="font-weight:bold;vertical-align:top;">REMOTE_PORT</td><td style="vertical-align:top;">:</td><td><div>44876</div></td></tr><tr><td style="font-weight:bold;vertical-align:top;">REQUEST_METHOD</td><td style="vertical-align:top;">:</td><td><div>GET</div></td></tr><tr><td style="font-weight:bold;vertical-align:top;">SCRIPT_NAME</td><td style="vertical-align:top;">:</td><td><div></div></td></tr><tr><td style="font-weight:bold;vertical-align:top;">SERVER_NAME</td><td style="vertical-align:top;">:</td><td><div>satyam-HP-450-Notebook-PC</div></td></tr><tr><td style="font-weight:bold;vertical-align:top;">SERVER_PORT</td><td style="vertical-align:top;">:</td><td><div>8000</div></td></tr><tr><td style="font-weight:bold;vertical-align:top;">SERVER_PROTOCOL</td><td style="vertical-align:top;">:</td><td><div>HTTP/1.1</div></td></tr><tr><td style="font-weight:bold;vertical-align:top;">SERVER_SOFTWARE</td><td style="vertical-align:top;">:</td><td><div>Rocket 1.2.6</div></td></tr><tr><td style="font-weight:bold;vertical-align:top;">app_folders</td><td style="vertical-align:top;">:</td><td><div>set([&#x27;/home/satyam/itws/web2py/applications/8/&#x27;, &#x27;/home/satyam/itws/web2py/applications/7/&#x27;, &#x27;/home/satyam/itws/web2py/applications/welcome/&#x27;, &#x27;/home/satyam/itws/web2py/applications/9/&#x27;, &#x27;/home/satyam/itws/web2py/applications/library/&#x27;, &#x27;/home/satyam/itws/web2py/applications/web2social/&#x27;, &#x27;/home/satyam/itws/web2py/applications/14/&#x27;, &#x27;/home/satyam/itws/web2py/applications/amazon/&#x27;, &#x27;/home/satyam/itws/web2py/applications/11/&#x27;, &#x27;/home/satyam/itws/web2py/applications/10/&#x27;, &#x27;/home/satyam/itws/web2py/applications/admin/&#x27;, &#x27;/home/satyam/itws/web2py/applications/12/&#x27;, &#x27;/home/satyam/itws/web2py/applications/project/&#x27;])</div></td></tr><tr><td style="font-weight:bold;vertical-align:top;">applications_parent</td><td style="vertical-align:top;">:</td><td><div>/home/satyam/itws/web2py</div></td></tr><tr><td style="font-weight:bold;vertical-align:top;">cmd_args</td><td style="vertical-align:top;">:</td><td><div><table></table></div></td></tr><tr><td style="font-weight:bold;vertical-align:top;">cmd_options</td><td style="vertical-align:top;">:</td><td><div>&lt;Values at 0x7f79c3ade518: {&#x27;verbose&#x27;: False, &#x27;ip&#x27;: &#x27;127.0.0.1&#x27;, &#x27;debuglevel&#x27;: 30, &#x27;with_scheduler&#x27;: False, &#x27;ips&#x27;: [&#x27;127.0.1.1&#x27;], &#x27;shutdown_timeout&#x27;: 5, &#x27;taskbar&#x27;: False, &#x27;with_coverage&#x27;: False, &#x27;scheduler_groups&#x27;: None, &#x27;port&#x27;: 8000, &#x27;maxthreads&#x27;: None, &#x27;softcron&#x27;: False, &#x27;server_name&#x27;: &#x27;satyam-HP-450-Notebook-PC&#x27;, &#x27;bpython&#x27;: False, &#x27;nogui&#x27;: False, &#x27;pid_filename&#x27;: &#x27;httpserver.pid&#x27;, &#x27;print_errors&#x27;: False, &#x27;extcron&#x27;: False, &#x27;runcron&#x27;: False, &#x27;run_system_tests&#x27;: False, &#x27;test&#x27;: None, &#x27;folder&#x27;: &#x27;/home/satyam/itws/web2py&#x27;, &#x27;config&#x27;: &#x27;&#x27;, &#x27;minthreads&#x27;: None, &#x27;shell&#x27;: None, &#x27;run&#x27;: &#x27;&#x27;, &#x27;log_filename&#x27;: &#x27;httpserver.log&#x27;, &#x27;profiler_dir&#x27;: None, &#x27;args&#x27;: [&#x27;&#x27;], &#x27;socket_timeout&#x27;: 5, &#x27;ssl_ca_certificate&#x27;: None, &#x27;scheduler&#x27;: None, &#x27;interfaces&#x27;: None, &#x27;ssl_private_key&#x27;: &#x27;&#x27;, &#x27;gae&#x27;: None, &#x27;password&#x27;: &#x27;&lt;ask&gt;&#x27;, &#x27;request_queue_size&#x27;: 5, &#x27;ssl_certificate&#x27;: &#x27;&#x27;, &#x27;cronjob&#x27;: False, &#x27;numthreads&#x27;: None, &#x27;quiet&#x27;: False, &#x27;import_models&#x27;: False, &#x27;timeout&#x27;: 10, &#x27;plain&#x27;: False, &#x27;nobanner&#x27;: False}&gt;</div></td></tr><tr><td style="font-weight:bold;vertical-align:top;">db_sessions</td><td style="vertical-align:top;">:</td><td><div>set([&#x27;8&#x27;])</div></td></tr><tr><td style="font-weight:bold;vertical-align:top;">debugging</td><td style="vertical-align:top;">:</td><td><div>True</div></td></tr><tr><td style="font-weight:bold;vertical-align:top;">gluon_parent</td><td style="vertical-align:top;">:</td><td><div>/home/satyam/itws/web2py</div></td></tr><tr><td style="font-weight:bold;vertical-align:top;">http_accept</td><td style="vertical-align:top;">:</td><td><div>text/html,application/xhtml+xml,application/xml;q=0.9,image/webp,*/*;q=0.8</div></td></tr><tr><td style="font-weight:bold;vertical-align:top;">http_accept_encoding</td><td style="vertical-align:top;">:</td><td><div>gzip, deflate, sdch</div></td></tr><tr><td style="font-weight:bold;vertical-align:top;">http_accept_language</td><td style="vertical-align:top;">:</td><td><div>en-US,en;q=0.8</div></td></tr><tr><td style="font-weight:bold;vertical-align:top;">http_cache_control</td><td style="vertical-align:top;">:</td><td><div>max-age=0</div></td></tr><tr><td style="font-weight:bold;vertical-align:top;">http_connection</td><td style="vertical-align:top;">:</td><td><div>keep-alive</div></td></tr><tr><td style="font-weight:bold;vertical-align:top;">http_cookie</td><td style="vertical-align:top;">:</td><td><div>session_id_5=127.0.0.1-305a4b9d-5e50-4e86-83dd-40a5c32dee90; session_id_project=127.0.0.1-60159f4e-e075-4dc9-8736-f65160383dbc; session_id_8=&quot;2:8071ed4c-4d67-42cd-b7d1-6d46bc327a86&quot;; session_id_7=127.0.0.1-1e54776b-68b9-4620-b262-3586cc028658; session_id_9=127.0.0.1-b698a94d-452a-41cc-a987-1f927819939f; session_id_11=127.0.0.1-8194ce75-8993-4c58-9f77-cb959eeb6e5b; session_id_12=127.0.0.1-09c285f7-fa01-450f-8b7c-b4d6267e9688; session_id_amazon=127.0.0.1-11167884-a1f8-4e62-b56a-2da66c6e37a6; session_id_10=127.0.0.1-c5215d2e-51f1-488d-817a-5861ad17a605; session_id_web2social=127.0.0.1-d3b80340-f6ce-4b7c-9e22-2309c4e07098; session_id_welcome=127.0.0.1-18a84d81-a8fd-40fa-8386-26693fcd3d57; session_id_library=127.0.0.1-a18084ed-1239-420f-9a10-2517a5e3b263; session_id_admin=127.0.0.1-f32b8256-9074-4c2e-8c6e-abdb9864afd5</div></td></tr><tr><td style="font-weight:bold;vertical-align:top;">http_host</td><td style="vertical-align:top;">:</td><td><div>127.0.0.1:8000</div></td></tr><tr><td style="font-weight:bold;vertical-align:top;">http_upgrade_insecure_requests</td><td style="vertical-align:top;">:</td><td><div>1</div></td></tr><tr><td style="font-weight:bold;vertical-align:top;">http_user_agent</td><td style="vertical-align:top;">:</td><td><div>Mozilla/5.0 (X11; Linux x86_64) AppleWebKit/537.36 (KHTML, like Gecko) Ubuntu Chromium/49.0.2623.108 Chrome/49.0.2623.108 Safari/537.36</div></td></tr><tr><td style="font-weight:bold;vertical-align:top;">is_jython</td><td style="vertical-align:top;">:</td><td><div>False</div></td></tr><tr><td style="font-weight:bold;vertical-align:top;">is_pypy</td><td style="vertical-align:top;">:</td><td><div>False</div></td></tr><tr><td style="font-weight:bold;vertical-align:top;">is_source</td><td style="vertical-align:top;">:</td><td><div>True</div></td></tr><tr><td style="font-weight:bold;vertical-align:top;">local_hosts</td><td style="vertical-align:top;">:</td><td><div><table><tr><td><div>satyam-HP-450-Notebook-PC</div></td></tr><tr><td><div>::1</div></td></tr><tr><td><div>127.0.1.1</div></td></tr><tr><td><div>::ffff:127.0.0.1</div></td></tr><tr><td><div>127.0.0.1</div></td></tr></table></div></td></tr><tr><td style="font-weight:bold;vertical-align:top;">path_info</td><td style="vertical-align:top;">:</td><td><div>/library/user/signin</div></td></tr><tr><td style="font-weight:bold;vertical-align:top;">query_string</td><td style="vertical-align:top;">:</td><td><div></div></td></tr><tr><td style="font-weight:bold;vertical-align:top;">remote_addr</td><td style="vertical-align:top;">:</td><td><div>127.0.0.1</div></td></tr><tr><td style="font-weight:bold;vertical-align:top;">remote_port</td><td style="vertical-align:top;">:</td><td><div>44876</div></td></tr><tr><td style="font-weight:bold;vertical-align:top;">request_method</td><td style="vertical-align:top;">:</td><td><div>GET</div></td></tr><tr><td style="font-weight:bold;vertical-align:top;">request_uri</td><td style="vertical-align:top;">:</td><td><div>/library/user/signin</div></td></tr><tr><td style="font-weight:bold;vertical-align:top;">script_name</td><td style="vertical-align:top;">:</td><td><div></div></td></tr><tr><td style="font-weight:bold;vertical-align:top;">server_name</td><td style="vertical-align:top;">:</td><td><div>satyam-HP-450-Notebook-PC</div></td></tr><tr><td style="font-weight:bold;vertical-align:top;">server_port</td><td style="vertical-align:top;">:</td><td><div>8000</div></td></tr><tr><td style="font-weight:bold;vertical-align:top;">server_protocol</td><td style="vertical-align:top;">:</td><td><div>HTTP/1.1</div></td></tr><tr><td style="font-weight:bold;vertical-align:top;">server_software</td><td style="vertical-align:top;">:</td><td><div>Rocket 1.2.6</div></td></tr><tr><td style="font-weight:bold;vertical-align:top;">web2py_path</td><td style="vertical-align:top;">:</td><td><div>/home/satyam/itws/web2py</div></td></tr><tr><td style="font-weight:bold;vertical-align:top;">web2py_version</td><td style="vertical-align:top;">:</td><td><div>2.13.4-stable+timestamp.2015.12.26.04.59.39</div></td></tr><tr><td style="font-weight:bold;vertical-align:top;">wsgi.errors</td><td style="vertical-align:top;">:</td><td><div>&lt;open file &#x27;&lt;stderr&gt;&#x27;, mode &#x27;w&#x27; at 0x7f79cb3cc1e0&gt;</div></td></tr><tr><td style="font-weight:bold;vertical-align:top;">wsgi.file_wrapper</td><td style="vertical-align:top;">:</td><td><div>&lt;class wsgiref.util.FileWrapper at 0x7f79c3b7fbb0&gt;</div></td></tr><tr><td style="font-weight:bold;vertical-align:top;">wsgi.input</td><td style="vertical-align:top;">:</td><td><div>&lt;socket._fileobject object at 0x7f798372de50&gt;</div></td></tr><tr><td style="font-weight:bold;vertical-align:top;">wsgi.multiprocess</td><td style="vertical-align:top;">:</td><td><div>False</div></td></tr><tr><td style="font-weight:bold;vertical-align:top;">wsgi.multithread</td><td style="vertical-align:top;">:</td><td><div>True</div></td></tr><tr><td style="font-weight:bold;vertical-align:top;">wsgi.run_once</td><td style="vertical-align:top;">:</td><td><div>False</div></td></tr><tr><td style="font-weight:bold;vertical-align:top;">wsgi.url_scheme</td><td style="vertical-align:top;">:</td><td><div>http</div></td></tr><tr><td style="font-weight:bold;vertical-align:top;">wsgi.version</td><td style="vertical-align:top;">:</td><td><div><table><tr><td><div>1</div></td></tr><tr><td><div>0</div></td></tr></table></div></td></tr><tr><td style="font-weight:bold;vertical-align:top;">wsgi_errors</td><td style="vertical-align:top;">:</td><td><div>&lt;open file &#x27;&lt;stderr&gt;&#x27;, mode &#x27;w&#x27; at 0x7f79cb3cc1e0&gt;</div></td></tr><tr><td style="font-weight:bold;vertical-align:top;">wsgi_file_wrapper</td><td style="vertical-align:top;">:</td><td><div>&lt;class wsgiref.util.FileWrapper at 0x7f79c3b7fbb0&gt;</div></td></tr><tr><td style="font-weight:bold;vertical-align:top;">wsgi_input</td><td style="vertical-align:top;">:</td><td><div>&lt;socket._fileobject object at 0x7f798372de50&gt;</div></td></tr><tr><td style="font-weight:bold;vertical-align:top;">wsgi_multiprocess</td><td style="vertical-align:top;">:</td><td><div>False</div></td></tr><tr><td style="font-weight:bold;vertical-align:top;">wsgi_multithread</td><td style="vertical-align:top;">:</td><td><div>True</div></td></tr><tr><td style="font-weight:bold;vertical-align:top;">wsgi_run_once</td><td style="vertical-align:top;">:</td><td><div>False</div></td></tr><tr><td style="font-weight:bold;vertical-align:top;">wsgi_url_scheme</td><td style="vertical-align:top;">:</td><td><div>http</div></td></tr><tr><td style="font-weight:bold;vertical-align:top;">wsgi_version</td><td style="vertical-align:top;">:</td><td><div><table><tr><td><div>1</div></td></tr><tr><td><div>0</div></td></tr></table></div></td></tr></table></div></td></tr><tr><td style="font-weight:bold;vertical-align:top;">extension</td><td style="vertical-align:top;">:</td><td><div>html</div></td></tr><tr><td style="font-weight:bold;vertical-align:top;">folder</td><td style="vertical-align:top;">:</td><td><div>/home/satyam/itws/web2py/applications/library/</div></td></tr><tr><td style="font-weight:bold;vertical-align:top;">function</td><td style="vertical-align:top;">:</td><td><div>signin</div></td></tr><tr><td style="font-weight:bold;vertical-align:top;">global_settings</td><td style="vertical-align:top;">:</td><td><div><table><tr><td style="font-weight:bold;vertical-align:top;">app_folders</td><td style="vertical-align:top;">:</td><td><div>set([&#x27;/home/satyam/itws/web2py/applications/8/&#x27;, &#x27;/home/satyam/itws/web2py/applications/7/&#x27;, &#x27;/home/satyam/itws/web2py/applications/welcome/&#x27;, &#x27;/home/satyam/itws/web2py/applications/9/&#x27;, &#x27;/home/satyam/itws/web2py/applications/library/&#x27;, &#x27;/home/satyam/itws/web2py/applications/web2social/&#x27;, &#x27;/home/satyam/itws/web2py/applications/14/&#x27;, &#x27;/home/satyam/itws/web2py/applications/amazon/&#x27;, &#x27;/home/satyam/itws/web2py/applications/11/&#x27;, &#x27;/home/satyam/itws/web2py/applications/10/&#x27;, &#x27;/home/satyam/itws/web2py/applications/admin/&#x27;, &#x27;/home/satyam/itws/web2py/applications/12/&#x27;, &#x27;/home/satyam/itws/web2py/applications/project/&#x27;])</div></td></tr><tr><td style="font-weight:bold;vertical-align:top;">applications_parent</td><td style="vertical-align:top;">:</td><td><div>/home/satyam/itws/web2py</div></td></tr><tr><td style="font-weight:bold;vertical-align:top;">cmd_args</td><td style="vertical-align:top;">:</td><td><div><table></table></div></td></tr><tr><td style="font-weight:bold;vertical-align:top;">cmd_options</td><td style="vertical-align:top;">:</td><td><div>&lt;Values at 0x7f79c3ade518: {&#x27;verbose&#x27;: False, &#x27;ip&#x27;: &#x27;127.0.0.1&#x27;, &#x27;debuglevel&#x27;: 30, &#x27;with_scheduler&#x27;: False, &#x27;ips&#x27;: [&#x27;127.0.1.1&#x27;], &#x27;shutdown_timeout&#x27;: 5, &#x27;taskbar&#x27;: False, &#x27;with_coverage&#x27;: False, &#x27;scheduler_groups&#x27;: None, &#x27;port&#x27;: 8000, &#x27;maxthreads&#x27;: None, &#x27;softcron&#x27;: False, &#x27;server_name&#x27;: &#x27;satyam-HP-450-Notebook-PC&#x27;, &#x27;bpython&#x27;: False, &#x27;nogui&#x27;: False, &#x27;pid_filename&#x27;: &#x27;httpserver.pid&#x27;, &#x27;print_errors&#x27;: False, &#x27;extcron&#x27;: False, &#x27;runcron&#x27;: False, &#x27;run_system_tests&#x27;: False, &#x27;test&#x27;: None, &#x27;folder&#x27;: &#x27;/home/satyam/itws/web2py&#x27;, &#x27;config&#x27;: &#x27;&#x27;, &#x27;minthreads&#x27;: None, &#x27;shell&#x27;: None, &#x27;run&#x27;: &#x27;&#x27;, &#x27;log_filename&#x27;: &#x27;httpserver.log&#x27;, &#x27;profiler_dir&#x27;: None, &#x27;args&#x27;: [&#x27;&#x27;], &#x27;socket_timeout&#x27;: 5, &#x27;ssl_ca_certificate&#x27;: None, &#x27;scheduler&#x27;: None, &#x27;interfaces&#x27;: None, &#x27;ssl_private_key&#x27;: &#x27;&#x27;, &#x27;gae&#x27;: None, &#x27;password&#x27;: &#x27;&lt;ask&gt;&#x27;, &#x27;request_queue_size&#x27;: 5, &#x27;ssl_certificate&#x27;: &#x27;&#x27;, &#x27;cronjob&#x27;: False, &#x27;numthreads&#x27;: None, &#x27;quiet&#x27;: False, &#x27;import_models&#x27;: False, &#x27;timeout&#x27;: 10, &#x27;plain&#x27;: False, &#x27;nobanner&#x27;: False}&gt;</div></td></tr><tr><td style="font-weight:bold;vertical-align:top;">db_sessions</td><td style="vertical-align:top;">:</td><td><div>set([&#x27;8&#x27;])</div></td></tr><tr><td style="font-weight:bold;vertical-align:top;">debugging</td><td style="vertical-align:top;">:</td><td><div>True</div></td></tr><tr><td style="font-weight:bold;vertical-align:top;">gluon_parent</td><td style="vertical-align:top;">:</td><td><div>/home/satyam/itws/web2py</div></td></tr><tr><td style="font-weight:bold;vertical-align:top;">is_jython</td><td style="vertical-align:top;">:</td><td><div>False</div></td></tr><tr><td style="font-weight:bold;vertical-align:top;">is_pypy</td><td style="vertical-align:top;">:</td><td><div>False</div></td></tr><tr><td style="font-weight:bold;vertical-align:top;">is_source</td><td style="vertical-align:top;">:</td><td><div>True</div></td></tr><tr><td style="font-weight:bold;vertical-align:top;">local_hosts</td><td style="vertical-align:top;">:</td><td><div><table><tr><td><div>satyam-HP-450-Notebook-PC</div></td></tr><tr><td><div>::1</div></td></tr><tr><td><div>127.0.1.1</div></td></tr><tr><td><div>::ffff:127.0.0.1</div></td></tr><tr><td><div>127.0.0.1</div></td></tr></table></div></td></tr><tr><td style="font-weight:bold;vertical-align:top;">web2py_version</td><td style="vertical-align:top;">:</td><td><div>2.13.4-stable+timestamp.2015.12.26.04.59.39</div></td></tr></table></div></td></tr><tr><td style="font-weight:bold;vertical-align:top;">is_https</td><td style="vertical-align:top;">:</td><td><div>False</div></td></tr><tr><td style="font-weight:bold;vertical-align:top;">is_local</td><td style="vertical-align:top;">:</td><td><div>True</div></td></tr><tr><td style="font-weight:bold;vertical-align:top;">is_restful</td><td style="vertical-align:top;">:</td><td><div>False</div></td></tr><tr><td style="font-weight:bold;vertical-align:top;">is_scheduler</td><td style="vertical-align:top;">:</td><td><div>False</div></td></tr><tr><td style="font-weight:bold;vertical-align:top;">is_shell</td><td style="vertical-align:top;">:</td><td><div>False</div></td></tr><tr><td style="font-weight:bold;vertical-align:top;">now</td><td style="vertical-align:top;">:</td><td><div>datetime.datetime(2016, 4, 28, 18, 8, 19, 916648)</div></td></tr><tr><td style="font-weight:bold;vertical-align:top;">raw_args</td><td style="vertical-align:top;">:</td><td><div></div></td></tr><tr><td style="font-weight:bold;vertical-align:top;">raw_extension</td><td style="vertical-align:top;">:</td><td><div>None</div></td></tr><tr><td style="font-weight:bold;vertical-align:top;">url</td><td style="vertical-align:top;">:</td><td><div>/library/user/signin</div></td></tr><tr><td style="font-weight:bold;vertical-align:top;">utcnow</td><td style="vertical-align:top;">:</td><td><div>datetime.datetime(2016, 4, 28, 12, 38, 19, 916680)</div></td></tr><tr><td style="font-weight:bold;vertical-align:top;">wsgi</td><td style="vertical-align:top;">:</td><td><div>&lt;gluon.main.LazyWSGI object at 0x7f7983db36d0&gt;</div></td></tr></table></div>'
tRp58
sS'frames'
p59
(lp60
(dp61
S'file'
p62
S'/home/satyam/itws/web2py/gluon/restricted.py'
p63
sS'dump'
p64
(dp65
S'environment'
p66
S"{'A': <class 'gluon.html.A'>, 'ANY_OF': <class 'gluon.validators.ANY_OF'>, 'ASSIGNJS': <function ASSIGNJS>, 'B': <class 'gluon.html.B'>, 'BEAUTIFY': <class 'gluon.html.BEAUTIFY'>, 'BODY': <class 'gluon.html.BODY'>, 'BR': <class 'gluon.html.BR'>, 'BUTTON': <class 'gluon.html.BUTTON'>, 'CAT': <class 'gluon.html.CAT'>, 'CENTER': <class 'gluon.html.CENTER'>, ...}"
p67
sS'ccode'
p68
S'<code object <module> at 0x7f798372dcb0, file "/...ications/library/views/user/signin.html", line 1>'
p69
ssS'lnum'
p70
I227
sS'lines'
p71
(dp72
I224
S'            ccode = code'
p73
sI225
S'        else:'
p74
sI226
S'            ccode = compile2(code, layer)'
p75
sI227
S'        exec ccode in environment'
p76
sI228
S'    except HTTP:'
p77
sI229
S'        raise'
p78
sI230
S'    except RestrictedError:'
p79
sI231
S'        # do not encapsulate (obfuscate) the original RestrictedError'
p80
sI222
S'    try:'
p81
sI223
S'        if isinstance(code, types.CodeType):'
p82
ssS'call'
p83
S'(code=\'response.write(\\\'<!DOCTYPE html PUBLIC "-//W3C//D... escape=False)\\nresponse.write(\\\'\\\\n\\\', escape=False)\', environment={\'A\': <class \'gluon.html.A\'>, \'ANY_OF\': <class \'gluon.validators.ANY_OF\'>, \'ASSIGNJS\': <function ASSIGNJS>, \'B\': <class \'gluon.html.B\'>, \'BEAUTIFY\': <class \'gluon.html.BEAUTIFY\'>, \'BODY\': <class \'gluon.html.BODY\'>, \'BR\': <class \'gluon.html.BR\'>, \'BUTTON\': <class \'gluon.html.BUTTON\'>, \'CAT\': <class \'gluon.html.CAT\'>, \'CENTER\': <class \'gluon.html.CENTER\'>, ...}, layer=\'/home/satyam/itws/web2py/applications/library/views/user/signin.html\')'
p84
sS'func'
p85
S'restricted'
p86
sa(dp87
g62
S'/home/satyam/itws/web2py/applications/library/views/user/signin.html'
p88
sg64
(dp89
sg70
I2
sg71
(dp90
I1
S'response.write(\'<!DOCTYPE html PUBLIC "-//W3C//DTD XHTML 1.0 Transitional//EN" "http://www.w3.org/TR/xhtml1/DTD/xhtml1-transitional.dtd">\\n<html xmlns="http://www.w3.org/1999/xhtml">\\n<head>\\n<title>\', escape=False)'
p91
sI2
S'response.write(page_title)'
p92
sI3
S'response.write(\'</title>\\n    <link rel="stylesheet" href="/library/static/css/b.css" type="text/css" />\\n<link rel="stylesheet" href="/library/static/css/mytable.css" type="text/css" />\\n<script type="text/javascript">\\n\\t\\t\\t\\tvar imageArray = new Array();\\n\\t\\t\\t\\timageArray[0] = new Image();\\n\\t\\t\\t\\timageArray[1] = new Image();\\n\\t\\t\\t\\timageArray[0].src = "/library/static/imgs/book.jpg";\\n\\t\\t\\t\\timageArray[1].src = "/library/static/images/books2.jpg";\\n\\n\\t\\t\\t\\tvar step=0;\\n\\t\\t\\t\\tfunction slideit()\\n\\t\\t\\t\\t\\t{\\n\\t\\t\\t\\t\\t\\tdocument.getElementById(\\\'slide\\\').src = imageArray[step].src;\\n\\t\\t\\t\\t\\t\\tif (step<1)\\n\\t\\t\\t\\t\\t\\t\\tstep++;\\n\\t\\t\\t\\t\\t\\telse\\n\\t\\t\\t\\t\\t\\t\\tstep=0;\\n\\t\\t\\t\\t\\t\\tsetTimeout("slideit()",2000);\\n\\t\\t\\t\\t\\t}\\n\\t\\t\\t\\tslideit();\\n\\n\\t\\t\\t</script>\\t\\n<style>\\n    .slide{\\n        height:400px;\\n    }\\n  header,nav,ol,ul{\\n  margin: 0;\\n  padding: 0;\\n  border: 0;\\n  font-size: 100%;\\n  font: inherit;\\n  vertical-align: baseline;\\n}\\n    ol, ul {\\n  list-style: none;\\n}\\n    header {\\n        font-size:12px;\\n        width:100%;\\n  display:block;\\n  padding-top: 0px;\\n        padding:0px;\\n        margin:0px;\\n  border-bottom: 1px solid #dadada;\\n  -webkit-box-shadow: 0 0 1px rgba(0, 0, 0, 0.04);\\n  box-shadow: 0 0 1px rgba(0, 0, 0, 0.04);\\n}\\n\\nnav {\\n    z-index:2;\\n    width:100%;\\n    display:block;\\n  height: 34px;\\n    padding:0px;\\n    margin:0px;\\n  border-bottom: 5px solid white;\\n  -webkit-box-shadow: inset 0 -2px 1px rgba(0, 0, 0, 0.03);\\n  box-shadow: inset 0 -2px 1px rgba(0, 0, 0, 0.03);\\n}\\n\\n.nav {\\n  margin: 0 auto;\\n  width: 680px;\\n}\\n.nav a {\\n  display: block;\\n  text-decoration: none;\\n}\\n.nav > li {\\n  float: left;\\n  margin-right: 0px;\\n}\\n.nav > li > a {\\n  height: 34px;\\n  line-height: 34px;\\n  padding: 0 20px;\\n  font-weight: bold;\\n  color: white;\\n  text-decoration: none;\\n  text-shadow: 0 -1px rgba(0, 0, 0, 0.3);\\n  background: #e6b800;\\n  border-radius: 3px 3px 0 0;\\n  background-image: -webkit-linear-gradient(top, #9cb6c5, #759aaf);\\n  background-image: -moz-linear-gradient(top, #9cb6c5, #759aaf);\\n  background-image: -o-linear-gradient(top, #9cb6c5, #759aaf);\\n  background-image: linear-gradient(to bottom, #9cb6c5, #759aaf);\\n  -webkit-box-shadow: inset 0 1px rgba(255, 255, 255, 0.3), inset 0 -2px 2px rgba(0, 0, 0, 0.03), 0 2px white, 0 0 2px rgba(0, 0, 0, 0.2);\\n  box-shadow: inset 0 1px rgba(255, 255, 255, 0.3), inset 0 -2px 2px rgba(0, 0, 0, 0.03), 0 2px white, 0 0 2px rgba(0, 0, 0, 0.2);\\n}\\n.nav > li > a:hover {\\n  text-decoration: none;\\n  background: #e6b800;\\n  background-image: -webkit-linear-gradient(top, #afc5d1, #85a6b8);\\n  background-image: -moz-linear-gradient(top, #afc5d1, #85a6b8);\\n  background-image: -o-linear-gradient(top, #afc5d1, #85a6b8);\\n  background-image: linear-gradient(to bottom, #afc5d1, #85a6b8);\\n}\\n.nav > li.active > a, .nav > li > a:active, .nav > .dropdown:hover > a {\\n  background: white;\\n  color: #404040;\\n  text-shadow: none;\\n  -webkit-box-shadow: 0 2px white, 0 0 2px rgba(0, 0, 0, 0.2);\\n  box-shadow: 0 2px white, 0 0 2px rgba(0, 0, 0, 0.2);\\n}\\n.nav a.icon {\\n  position: relative;\\n  width: 40.8px;\\n  padding: 0;\\n}\\n.nav a.icon > span {\\n  display: block;\\n  position: absolute;\\n  top: 9px;\\n  left: 12px;\\n  height: 16px;\\n  width: 16px;\\n  background-repeat: no-repeat;\\n  background-position: 0 0;\\n  font: 0/0 serif;\\n  text-shadow: none;\\n  color: transparent;\\n}\\n\\n.nav .active a.icon > span, .nav a.icon:active > span {\\n  background-position: 0 -16px;\\n}\\n\\n.dropdown {\\n  position: relative;\\n  border-bottom: 5px solid white;\\n}\\n.dropdown:hover ul {\\n  display: block;\\n}\\n.dropdown ul {\\n  display: none;\\n  position: absolute;\\n  top: 39px;\\n  left: -1px;\\n  min-width: 160px;\\n  padding: 0 0 5px;\\n  background: white;\\n  border: 1px solid #dadada;\\n  border-top: 0;\\n  border-radius: 0 0 3px 3px;\\n  -webkit-box-shadow: 0 0 1px rgba(0, 0, 0, 0.04);\\n  box-shadow: 0 0 1px rgba(0, 0, 0, 0.04);\\n}\\n.dropdown ul.large {\\n  min-width: 200px;\\n}\\n.dropdown li {\\n  display: block;\\n  margin: 0 18px;\\n  overflow: visible;\\n}\\n.dropdown li + li {\\n  border-top: 1px solid #eee;\\n}\\n.dropdown li a {\\n  color: #555;\\n  padding: 8px 18px;\\n  margin: 0 -18px;\\n}\\n.dropdown li a:hover {\\n  color: black;\\n}\\n    </style>\\n\\n\\n<script type="text/javascript" src="http://code.jquery.com/jquery-1.9.1.min.js"></script> \\n <link rel="shortcut icon" href="/library/static/imgs/library4.png"/>\\n<meta name="viewport" content="width=device-width, initial-scale=1">\\n\\n</head>\\n<body onload="slideit();">\\n\\n<div class="container">\\n    <img id=slide height=320px src="/library/static/imgs/book.jpg" width=100%/>\\n</div>\\n<div id="outer-wrapper">\\n  <div id="inner-wrapper">\\n    <div id="content-wrapper">\\n      <div id="content">\\n        <!--<form name="search" action="#" id="search-form">\\n          <input type="text" class="txt" value="Search" />\\n        </form>-->\\n      \\n    \\n        \\n       <!-- <ul id="nav">-->\\n          \\n          \\n           \\n                  \\n\\t\\t<!--\', escape=False)'
p93
sI4
S'menu = [("index","Home"),("authors","authors"),'
p94
sI5
S'("bookdisplay","Books"),'
p95
sI6
S'("appguide","AppGuide"),("about","About")]'
p96
sI7
S'for (path,text) in menu:'
p97
sI8
S"    if request.controller == 'default' and request.function == path:"
p98
sI9
S"        response.write(LI(A(text, _href=URL('default',path))))"
p99
sI10
S'    else:'
p100
sI11
S"        response.write(LI(A(text, _href=URL('default', path))))"
p101
sI12
S"        response.write('\\n          \\n         \\n           ', escape=False)"
p102
ssg83
S'()'
p103
sg85
S'<module>'
p104
sasS'pyver'
p105
S'Python 2.7.10: /usr/bin/python (prefix: /usr)'
p106
sS'session'
p107
g57
(S's\x9b\x00\x00\x00<div><table><tr><td style="font-weight:bold;vertical-align:top;">user</td><td style="vertical-align:top;">:</td><td><div>None</div></td></tr></table></div>'
tRp108
sS'etype'
p109
S"<type 'exceptions.NameError'>"
p110
sS'date'
p111
S'Thu Apr 28 18:08:19 2016'
p112
sS'response'
p113
g57
(S'sz?\x00\x00<div><table><tr><td style="font-weight:bold;vertical-align:top;">body</td><td style="vertical-align:top;">:</td><td><div>&lt;cStringIO.StringO object at 0x7f7988274768&gt;</div></td></tr><tr><td style="font-weight:bold;vertical-align:top;">cookies</td><td style="vertical-align:top;">:</td><td><div><table><tr><td style="font-weight:bold;vertical-align:top;">session_id_library</td><td style="vertical-align:top;">:</td><td><div>127.0.0.1-a18084ed-1239-420f-9a10-2517a5e3b263<table><tr><td style="font-weight:bold;vertical-align:top;">comment</td><td style="vertical-align:top;">:</td><td><div></div></td></tr><tr><td style="font-weight:bold;vertical-align:top;">domain</td><td style="vertical-align:top;">:</td><td><div></div></td></tr><tr><td style="font-weight:bold;vertical-align:top;">expires</td><td style="vertical-align:top;">:</td><td><div></div></td></tr><tr><td style="font-weight:bold;vertical-align:top;">httponly</td><td style="vertical-align:top;">:</td><td><div></div></td></tr><tr><td style="font-weight:bold;vertical-align:top;">max-age</td><td style="vertical-align:top;">:</td><td><div></div></td></tr><tr><td style="font-weight:bold;vertical-align:top;">path</td><td style="vertical-align:top;">:</td><td><div>/</div></td></tr><tr><td style="font-weight:bold;vertical-align:top;">secure</td><td style="vertical-align:top;">:</td><td><div></div></td></tr><tr><td style="font-weight:bold;vertical-align:top;">version</td><td style="vertical-align:top;">:</td><td><div></div></td></tr></table></div></td></tr></table></div></td></tr><tr><td style="font-weight:bold;vertical-align:top;">delimiters</td><td style="vertical-align:top;">:</td><td><div><table><tr><td><div>{{</div></td></tr><tr><td><div>}}</div></td></tr></table></div></td></tr><tr><td style="font-weight:bold;vertical-align:top;">files</td><td style="vertical-align:top;">:</td><td><div><table></table></div></td></tr><tr><td style="font-weight:bold;vertical-align:top;">flash</td><td style="vertical-align:top;">:</td><td><div></div></td></tr><tr><td style="font-weight:bold;vertical-align:top;">form_label_separator</td><td style="vertical-align:top;">:</td><td><div>: </div></td></tr><tr><td style="font-weight:bold;vertical-align:top;">formstyle</td><td style="vertical-align:top;">:</td><td><div>table3cols</div></td></tr><tr><td style="font-weight:bold;vertical-align:top;">generic_patterns</td><td style="vertical-align:top;">:</td><td><div><table><tr><td><div>*</div></td></tr></table></div></td></tr><tr><td style="font-weight:bold;vertical-align:top;">google_analytics_id</td><td style="vertical-align:top;">:</td><td><div>None</div></td></tr><tr><td style="font-weight:bold;vertical-align:top;">headers</td><td style="vertical-align:top;">:</td><td><div><table><tr><td style="font-weight:bold;vertical-align:top;">X-Powered-By</td><td style="vertical-align:top;">:</td><td><div>web2py</div></td></tr></table></div></td></tr><tr><td style="font-weight:bold;vertical-align:top;">logo</td><td style="vertical-align:top;">:</td><td><div><a class="navbar-brand" href="http://www.web2py.com/" id="web2py-logo"><b>web<span>2</span>py</b>&trade;&nbsp;</a></div></td></tr><tr><td style="font-weight:bold;vertical-align:top;">menu</td><td style="vertical-align:top;">:</td><td><div><table><tr><td><div><table><tr><td><div>Home</div></td></tr><tr><td><div>False</div></td></tr><tr><td><div>/library/default/index</div></td></tr><tr><td><div><table></table></div></td></tr></table></div></td></tr><tr><td><div><table><tr><td><div>My Sites</div></td></tr><tr><td><div>False</div></td></tr><tr><td><div>/admin/default/site</div></td></tr></table></div></td></tr><tr><td><div><table><tr><td><div>This App</div></td></tr><tr><td><div>False</div></td></tr><tr><td><div>#</div></td></tr><tr><td><div><table><tr><td><div><table><tr><td><div>Design</div></td></tr><tr><td><div>False</div></td></tr><tr><td><div>/admin/default/design/library</div></td></tr></table></div></td></tr><tr><td><div><li class="divider"></li></div></td></tr><tr><td><div><table><tr><td><div>Controller</div></td></tr><tr><td><div>False</div></td></tr><tr><td><div>/admin/default/edit/library/controllers/user.py</div></td></tr></table></div></td></tr><tr><td><div><table><tr><td><div>View</div></td></tr><tr><td><div>False</div></td></tr><tr><td><div>/admin/default/edit/library/views/user/signin.html</div></td></tr></table></div></td></tr><tr><td><div><table><tr><td><div>DB Model</div></td></tr><tr><td><div>False</div></td></tr><tr><td><div>/admin/default/edit/library/models/db.py</div></td></tr></table></div></td></tr><tr><td><div><table><tr><td><div>Menu Model</div></td></tr><tr><td><div>False</div></td></tr><tr><td><div>/admin/default/edit/library/models/menu.py</div></td></tr></table></div></td></tr><tr><td><div><table><tr><td><div>Config.ini</div></td></tr><tr><td><div>False</div></td></tr><tr><td><div>/admin/default/edit/library/private/appconfig.ini</div></td></tr></table></div></td></tr><tr><td><div><table><tr><td><div>Layout</div></td></tr><tr><td><div>False</div></td></tr><tr><td><div>/admin/default/edit/library/views/layout.html</div></td></tr></table></div></td></tr><tr><td><div><table><tr><td><div>Stylesheet</div></td></tr><tr><td><div>False</div></td></tr><tr><td><div>/admin/default/edit/library/static/css/web2py-bootstrap3.css</div></td></tr></table></div></td></tr><tr><td><div><table><tr><td><div>Database</div></td></tr><tr><td><div>False</div></td></tr><tr><td><div>/library/appadmin/index</div></td></tr></table></div></td></tr><tr><td><div><table><tr><td><div>Errors</div></td></tr><tr><td><div>False</div></td></tr><tr><td><div>/admin/default/errors/library</div></td></tr></table></div></td></tr><tr><td><div><table><tr><td><div>About</div></td></tr><tr><td><div>False</div></td></tr><tr><td><div>/admin/default/about/library</div></td></tr></table></div></td></tr></table></div></td></tr></table></div></td></tr><tr><td><div><table><tr><td><div>web2py.com</div></td></tr><tr><td><div>False</div></td></tr><tr><td><div>#</div></td></tr><tr><td><div><table><tr><td><div><table><tr><td><div>Download</div></td></tr><tr><td><div>False</div></td></tr><tr><td><div>http://www.web2py.com/examples/default/download</div></td></tr></table></div></td></tr><tr><td><div><table><tr><td><div>Support</div></td></tr><tr><td><div>False</div></td></tr><tr><td><div>http://www.web2py.com/examples/default/support</div></td></tr></table></div></td></tr><tr><td><div><table><tr><td><div>Demo</div></td></tr><tr><td><div>False</div></td></tr><tr><td><div>http://web2py.com/demo_admin</div></td></tr></table></div></td></tr><tr><td><div><table><tr><td><div>Quick Examples</div></td></tr><tr><td><div>False</div></td></tr><tr><td><div>http://web2py.com/examples/default/examples</div></td></tr></table></div></td></tr><tr><td><div><table><tr><td><div>FAQ</div></td></tr><tr><td><div>False</div></td></tr><tr><td><div>http://web2py.com/AlterEgo</div></td></tr></table></div></td></tr><tr><td><div><table><tr><td><div>Videos</div></td></tr><tr><td><div>False</div></td></tr><tr><td><div>http://www.web2py.com/examples/default/videos/</div></td></tr></table></div></td></tr><tr><td><div><table><tr><td><div>Free Applications</div></td></tr><tr><td><div>False</div></td></tr><tr><td><div>http://web2py.com/appliances</div></td></tr></table></div></td></tr><tr><td><div><table><tr><td><div>Plugins</div></td></tr><tr><td><div>False</div></td></tr><tr><td><div>http://web2py.com/plugins</div></td></tr></table></div></td></tr><tr><td><div><table><tr><td><div>Recipes</div></td></tr><tr><td><div>False</div></td></tr><tr><td><div>http://web2pyslices.com/</div></td></tr></table></div></td></tr></table></div></td></tr></table></div></td></tr><tr><td><div><table><tr><td><div>Documentation</div></td></tr><tr><td><div>False</div></td></tr><tr><td><div>#</div></td></tr><tr><td><div><table><tr><td><div><table><tr><td><div>Online book</div></td></tr><tr><td><div>False</div></td></tr><tr><td><div>http://www.web2py.com/book</div></td></tr></table></div></td></tr><tr><td><div><li class="divider"></li></div></td></tr><tr><td><div><table><tr><td><div>Preface</div></td></tr><tr><td><div>False</div></td></tr><tr><td><div>http://www.web2py.com/book/default/chapter/00</div></td></tr></table></div></td></tr><tr><td><div><table><tr><td><div>Introduction</div></td></tr><tr><td><div>False</div></td></tr><tr><td><div>http://www.web2py.com/book/default/chapter/01</div></td></tr></table></div></td></tr><tr><td><div><table><tr><td><div>Python</div></td></tr><tr><td><div>False</div></td></tr><tr><td><div>http://www.web2py.com/book/default/chapter/02</div></td></tr></table></div></td></tr><tr><td><div><table><tr><td><div>Overview</div></td></tr><tr><td><div>False</div></td></tr><tr><td><div>http://www.web2py.com/book/default/chapter/03</div></td></tr></table></div></td></tr><tr><td><div><table><tr><td><div>The Core</div></td></tr><tr><td><div>False</div></td></tr><tr><td><div>http://www.web2py.com/book/default/chapter/04</div></td></tr></table></div></td></tr><tr><td><div><table><tr><td><div>The Views</div></td></tr><tr><td><div>False</div></td></tr><tr><td><div>http://www.web2py.com/book/default/chapter/05</div></td></tr></table></div></td></tr><tr><td><div><table><tr><td><div>Database</div></td></tr><tr><td><div>False</div></td></tr><tr><td><div>http://www.web2py.com/book/default/chapter/06</div></td></tr></table></div></td></tr><tr><td><div><table><tr><td><div>Forms and Validators</div></td></tr><tr><td><div>False</div></td></tr><tr><td><div>http://www.web2py.com/book/default/chapter/07</div></td></tr></table></div></td></tr><tr><td><div><table><tr><td><div>Email and SMS</div></td></tr><tr><td><div>False</div></td></tr><tr><td><div>http://www.web2py.com/book/default/chapter/08</div></td></tr></table></div></td></tr><tr><td><div><table><tr><td><div>Access Control</div></td></tr><tr><td><div>False</div></td></tr><tr><td><div>http://www.web2py.com/book/default/chapter/09</div></td></tr></table></div></td></tr><tr><td><div><table><tr><td><div>Services</div></td></tr><tr><td><div>False</div></td></tr><tr><td><div>http://www.web2py.com/book/default/chapter/10</div></td></tr></table></div></td></tr><tr><td><div><table><tr><td><div>Ajax Recipes</div></td></tr><tr><td><div>False</div></td></tr><tr><td><div>http://www.web2py.com/book/default/chapter/11</div></td></tr></table></div></td></tr><tr><td><div><table><tr><td><div>Components and Plugins</div></td></tr><tr><td><div>False</div></td></tr><tr><td><div>http://www.web2py.com/book/default/chapter/12</div></td></tr></table></div></td></tr><tr><td><div><table><tr><td><div>Deployment Recipes</div></td></tr><tr><td><div>False</div></td></tr><tr><td><div>http://www.web2py.com/book/default/chapter/13</div></td></tr></table></div></td></tr><tr><td><div><table><tr><td><div>Other Recipes</div></td></tr><tr><td><div>False</div></td></tr><tr><td><div>http://www.web2py.com/book/default/chapter/14</div></td></tr></table></div></td></tr><tr><td><div><table><tr><td><div>Helping web2py</div></td></tr><tr><td><div>False</div></td></tr><tr><td><div>http://www.web2py.com/book/default/chapter/15</div></td></tr></table></div></td></tr><tr><td><div><table><tr><td><div>Buy web2py\'s book</div></td></tr><tr><td><div>False</div></td></tr><tr><td><div>http://stores.lulu.com/web2py</div></td></tr></table></div></td></tr></table></div></td></tr></table></div></td></tr><tr><td><div><table><tr><td><div>Community</div></td></tr><tr><td><div>False</div></td></tr><tr><td><div>None</div></td></tr><tr><td><div><table><tr><td><div><table><tr><td><div>Groups</div></td></tr><tr><td><div>False</div></td></tr><tr><td><div>http://www.web2py.com/examples/default/usergroups</div></td></tr></table></div></td></tr><tr><td><div><table><tr><td><div>Twitter</div></td></tr><tr><td><div>False</div></td></tr><tr><td><div>http://twitter.com/web2py</div></td></tr></table></div></td></tr><tr><td><div><table><tr><td><div>Live Chat</div></td></tr><tr><td><div>False</div></td></tr><tr><td><div>http://webchat.freenode.net/?channels=web2py</div></td></tr></table></div></td></tr></table></div></td></tr></table></div></td></tr></table></div></td></tr><tr><td style="font-weight:bold;vertical-align:top;">meta</td><td style="vertical-align:top;">:</td><td><div><table><tr><td style="font-weight:bold;vertical-align:top;">author</td><td style="vertical-align:top;">:</td><td><div>Your Name &lt;you@example.com&gt;</div></td></tr><tr><td style="font-weight:bold;vertical-align:top;">description</td><td style="vertical-align:top;">:</td><td><div>a cool new app</div></td></tr><tr><td style="font-weight:bold;vertical-align:top;">generator</td><td style="vertical-align:top;">:</td><td><div>Web2py Web Framework</div></td></tr><tr><td style="font-weight:bold;vertical-align:top;">keywords</td><td style="vertical-align:top;">:</td><td><div>web2py, python, framework</div></td></tr></table></div></td></tr><tr><td style="font-weight:bold;vertical-align:top;">models_to_run</td><td style="vertical-align:top;">:</td><td><div><table><tr><td><div>^\\w+\\.py$</div></td></tr><tr><td><div>^user/\\w+\\.py$</div></td></tr><tr><td><div>^user/signin/\\w+\\.py$</div></td></tr></table></div></td></tr><tr><td style="font-weight:bold;vertical-align:top;">postprocessing</td><td style="vertical-align:top;">:</td><td><div><table></table></div></td></tr><tr><td style="font-weight:bold;vertical-align:top;">session_client</td><td style="vertical-align:top;">:</td><td><div>127.0.0.1</div></td></tr><tr><td style="font-weight:bold;vertical-align:top;">session_cookie_compression_level</td><td style="vertical-align:top;">:</td><td><div>None</div></td></tr><tr><td style="font-weight:bold;vertical-align:top;">session_cookie_expires</td><td style="vertical-align:top;">:</td><td><div>None</div></td></tr><tr><td style="font-weight:bold;vertical-align:top;">session_cookie_key</td><td style="vertical-align:top;">:</td><td><div>None</div></td></tr><tr><td style="font-weight:bold;vertical-align:top;">session_data_name</td><td style="vertical-align:top;">:</td><td><div>session_data_library</div></td></tr><tr><td style="font-weight:bold;vertical-align:top;">session_file</td><td style="vertical-align:top;">:</td><td><div>&lt;open file &#x27;/home/satyam/itws/web2py/applications/library/sessions/145/1be/127.0.0.1-a18084ed-1239-420f-9a10-2517a5e3b263&#x27;, mode &#x27;rb+&#x27; at 0x7f7988188150&gt;</div></td></tr><tr><td style="font-weight:bold;vertical-align:top;">session_filename</td><td style="vertical-align:top;">:</td><td><div>/home/satyam/itws/web2py/applications/library/sessions/127.0.0.1-a18084ed-1239-420f-9a10-2517a5e3b263</div></td></tr><tr><td style="font-weight:bold;vertical-align:top;">session_hash</td><td style="vertical-align:top;">:</td><td><div>d956925ecfb315aae1da86378e099e2c</div></td></tr><tr><td style="font-weight:bold;vertical-align:top;">session_id</td><td style="vertical-align:top;">:</td><td><div>127.0.0.1-a18084ed-1239-420f-9a10-2517a5e3b263</div></td></tr><tr><td style="font-weight:bold;vertical-align:top;">session_id_name</td><td style="vertical-align:top;">:</td><td><div>session_id_library</div></td></tr><tr><td style="font-weight:bold;vertical-align:top;">session_locked</td><td style="vertical-align:top;">:</td><td><div>True</div></td></tr><tr><td style="font-weight:bold;vertical-align:top;">session_masterapp</td><td style="vertical-align:top;">:</td><td><div>library</div></td></tr><tr><td style="font-weight:bold;vertical-align:top;">session_new</td><td style="vertical-align:top;">:</td><td><div>False</div></td></tr><tr><td style="font-weight:bold;vertical-align:top;">session_storage_type</td><td style="vertical-align:top;">:</td><td><div>file</div></td></tr><tr><td style="font-weight:bold;vertical-align:top;">status</td><td style="vertical-align:top;">:</td><td><div>200</div></td></tr><tr><td style="font-weight:bold;vertical-align:top;">subtitle</td><td style="vertical-align:top;">:</td><td><div></div></td></tr><tr><td style="font-weight:bold;vertical-align:top;">title</td><td style="vertical-align:top;">:</td><td><div>Library</div></td></tr><tr><td style="font-weight:bold;vertical-align:top;">view</td><td style="vertical-align:top;">:</td><td><div>user/signin.html</div></td></tr></table></div>'
tRp114
sS'locals'
p115
(dp116
S'OBJECT'
p117
S"<class 'gluon.html.OBJECT'>"
p118
sS'SQLDB'
p119
S"<class 'pydal.base.DAL'>"
p120
sg107
S"<Storage {'_formkey[default]': ['7fb727c8-b225-4...35e-5050-499d-8e45-f85adcd038e3'], 'user': None}>"
p121
sS'LINK'
p122
S"<class 'gluon.html.LINK'>"
p123
sS'BR'
p124
S"<class 'gluon.html.BR'>"
p125
sS'local_import'
p126
S'<function <lambda>>'
p127
sS'OPTGROUP'
p128
S"<class 'gluon.html.OPTGROUP'>"
p129
sS'PRE'
p130
S"<class 'gluon.html.PRE'>"
p131
sS'IS_INT_IN_RANGE'
p132
S"<class 'gluon.validators.IS_INT_IN_RANGE'>"
p133
sS'IS_LOWER'
p134
S"<class 'gluon.validators.IS_LOWER'>"
p135
sS'IS_STRONG'
p136
S"<class 'gluon.validators.IS_STRONG'>"
p137
sS'cache'
p138
S'<gluon.cache.Cache object>'
p139
sS'IS_IN_DB'
p140
S"<class 'gluon.validators.IS_IN_DB'>"
p141
sS'TAG'
p142
S'<gluon.html.__TAG__ object>'
p143
sS'SQLField'
p144
S"<class 'pydal.objects.Field'>"
p145
sS'BODY'
p146
S"<class 'gluon.html.BODY'>"
p147
sS'IS_DATE_IN_RANGE'
p148
S"<class 'gluon.validators.IS_DATE_IN_RANGE'>"
p149
sS'TH'
p150
S"<class 'gluon.html.TH'>"
p151
sS'URL'
p152
S'<function URL>'
p153
sS'__file__'
p154
S"'/home/satyam/itws/web2py/applications/library/views/user/signin.html'"
p155
sS'db'
p156
S'<DAL uri="sqlite://storage.sqlite">'
p157
sS'P'
S"<class 'gluon.html.P'>"
p158
sS'TFOOT'
p159
S"<class 'gluon.html.TFOOT'>"
p160
sS'XHTML'
p161
S"<class 'gluon.html.XHTML'>"
p162
sS'ON'
p163
S'True'
p164
sS'OL'
p165
S"<class 'gluon.html.OL'>"
p166
sS'TEXTAREA'
p167
S"<class 'gluon.html.TEXTAREA'>"
p168
sS'MENU'
p169
S"<class 'gluon.html.MENU'>"
p170
sS'EM'
p171
S"<class 'gluon.html.EM'>"
p172
sS'CODE'
p173
S"<class 'gluon.html.CODE'>"
p174
sS'HTTP'
p175
S"<class 'gluon.http.HTTP'>"
p176
sS'HR'
p177
S"<class 'gluon.html.HR'>"
p178
sS'IS_DATETIME'
p179
S"<class 'gluon.validators.IS_DATETIME'>"
p180
sS'HEAD'
p181
S"<class 'gluon.html.HEAD'>"
p182
sS'LABEL'
p183
S"<class 'gluon.html.LABEL'>"
p184
sS'CLEANUP'
p185
S"<class 'gluon.validators.CLEANUP'>"
p186
sS'SELECT'
p187
S"<class 'gluon.html.SELECT'>"
p188
sS'CENTER'
p189
S"<class 'gluon.html.CENTER'>"
p190
sS'DEVELOPMENT_MENU'
p191
g164
sS'__builtins__'
p192
S"{'ArithmeticError': <type 'exceptions.ArithmeticError'>, 'AssertionError': <type 'exceptions.AssertionError'>, 'AttributeError': <type 'exceptions.AttributeError'>, 'BaseException': <type 'exceptions.BaseException'>, 'BufferError': <type 'exceptions.BufferError'>, 'BytesWarning': <type 'exceptions.BytesWarning'>, 'DeprecationWarning': <type 'exceptions.DeprecationWarning'>, 'EOFError': <type 'exceptions.EOFError'>, 'Ellipsis': Ellipsis, 'EnvironmentError': <type 'exceptions.EnvironmentError'>, ...}"
p193
sS'HTML'
p194
S"<class 'gluon.html.HTML'>"
p195
sS'SQLFORM'
p196
S"<class 'gluon.sqlhtml.SQLFORM'>"
p197
sS'LOAD'
p198
S'<function LOAD>'
p199
sS'redirect'
p200
S'<function redirect>'
p201
sS'FIELDSET'
p202
S"<class 'gluon.html.FIELDSET'>"
p203
sS'IS_EQUAL_TO'
p204
S"<class 'gluon.validators.IS_EQUAL_TO'>"
p205
sS'embed64'
p206
S'<function embed64>'
p207
sS'IS_LIST_OF'
p208
S"<class 'gluon.validators.IS_LIST_OF'>"
p209
sS'__name__'
p210
S"'__restricted__'"
p211
sS'EMBED'
p212
S"<class 'gluon.html.EMBED'>"
p213
sS'_'
S'<function _>'
p214
sS'FORM'
p215
S"<class 'gluon.html.FORM'>"
p216
sS'c'
S"['Classic', 'Science Fiction', 'Romance', 'Adventure', 'Thrill', 'History', 'Engineering', 'Others']"
p217
sS'H2'
p218
S"<class 'gluon.html.H2'>"
p219
sS'H3'
p220
S"<class 'gluon.html.H3'>"
p221
sS'BUTTON'
p222
S"<class 'gluon.html.BUTTON'>"
p223
sS'H1'
p224
S"<class 'gluon.html.H1'>"
p225
sS'H6'
p226
S"<class 'gluon.html.H6'>"
p227
sS'H4'
p228
S"<class 'gluon.html.H4'>"
p229
sS'H5'
p230
S"<class 'gluon.html.H5'>"
p231
sS'UL'
p232
S"<class 'gluon.html.UL'>"
p233
sS'IS_UPPER'
p234
S"<class 'gluon.validators.IS_UPPER'>"
p235
sS'xmlescape'
p236
S'<function xmlescape>'
p237
sS'IS_TIME'
p238
S"<class 'gluon.validators.IS_TIME'>"
p239
sS'OPTION'
p240
S"<class 'gluon.html.OPTION'>"
p241
sS'TITLE'
p242
S"<class 'gluon.html.TITLE'>"
p243
sS'CRYPT'
p244
S"<class 'gluon.validators.CRYPT'>"
p245
sS'IS_EMPTY_OR'
p246
S"<class 'gluon.validators.IS_EMPTY_OR'>"
p247
sS'MARKMIN'
p248
S"<class 'gluon.html.MARKMIN'>"
p249
sS'INPUT'
p250
S"<class 'gluon.html.INPUT'>"
p251
sS'STRONG'
p252
S"<class 'gluon.html.STRONG'>"
p253
sS'COL'
p254
S"<class 'gluon.html.COL'>"
p255
sS'SCRIPT'
p256
S"<class 'gluon.html.SCRIPT'>"
p257
sS'TABLE'
p258
S"<class 'gluon.html.TABLE'>"
p259
sS'IS_IPV4'
p260
S"<class 'gluon.validators.IS_IPV4'>"
p261
sS'IS_LENGTH'
p262
S"<class 'gluon.validators.IS_LENGTH'>"
p263
sS'IS_IPV6'
p264
S"<class 'gluon.validators.IS_IPV6'>"
p265
sS'XML'
p266
S"<class 'gluon.html.XML'>"
p267
sS'ANY_OF'
p268
S"<class 'gluon.validators.ANY_OF'>"
p269
sS'B'
S"<class 'gluon.html.B'>"
p270
sS'IMG'
p271
S"<class 'gluon.html.IMG'>"
p272
sS'SQLTABLE'
p273
S"<class 'gluon.sqlhtml.SQLTABLE'>"
p274
sS'IS_MATCH'
p275
S"<class 'gluon.validators.IS_MATCH'>"
p276
sS'IS_ALPHANUMERIC'
p277
S"<class 'gluon.validators.IS_ALPHANUMERIC'>"
p278
sS'p1'
p279
S'0'
sS'SPAN'
p280
S"<class 'gluon.html.SPAN'>"
p281
sS'IS_JSON'
p282
S"<class 'gluon.validators.IS_JSON'>"
p283
sS'IS_IPADDRESS'
p284
S"<class 'gluon.validators.IS_IPADDRESS'>"
p285
sS'IS_SLUG'
p286
S"<class 'gluon.validators.IS_SLUG'>"
p287
sS'BEAUTIFY'
p288
S"<class 'gluon.html.BEAUTIFY'>"
p289
sS'META'
p290
S"<class 'gluon.html.META'>"
p291
sS'IS_DATE'
p292
S"<class 'gluon.validators.IS_DATE'>"
p293
sS'IS_EMAIL'
p294
S"<class 'gluon.validators.IS_EMAIL'>"
p295
sS'IS_NOT_EMPTY'
p296
S"<class 'gluon.validators.IS_NOT_EMPTY'>"
p297
sS'IS_FLOAT_IN_RANGE'
p298
S"<class 'gluon.validators.IS_FLOAT_IN_RANGE'>"
p299
sS'TBODY'
p300
S"<class 'gluon.html.TBODY'>"
p301
sS'CAT'
p302
S"<class 'gluon.html.CAT'>"
p303
sS'Field'
p304
S"<class 'pydal.objects.Field'>"
p305
sS'IS_LIST_OF_EMAILS'
p306
S"<class 'gluon.validators.IS_LIST_OF_EMAILS'>"
p307
sS'DIV'
p308
S"<class 'gluon.html.DIV'>"
p309
sS'LEGEND'
p310
S"<class 'gluon.html.LEGEND'>"
p311
sS'COLGROUP'
p312
S"<class 'gluon.html.COLGROUP'>"
p313
sS'DAL'
p314
S"<class 'pydal.base.DAL'>"
p315
sS'ASSIGNJS'
p316
S'<function ASSIGNJS>'
p317
sS'TR'
p318
S"<class 'gluon.html.TR'>"
p319
sS'LI'
p320
S"<class 'gluon.html.LI'>"
p321
sS'IFRAME'
p322
S"<class 'gluon.html.IFRAME'>"
p323
sS'TD'
p324
S"<class 'gluon.html.TD'>"
p325
sS'IS_URL'
p326
S"<class 'gluon.validators.IS_URL'>"
p327
sS'A'
S"<class 'gluon.html.A'>"
p328
sS'STYLE'
p329
S"<class 'gluon.html.STYLE'>"
p330
sS'IS_DATETIME_IN_RANGE'
p331
S"<class 'gluon.validators.IS_DATETIME_IN_RANGE'>"
p332
sS'IS_IMAGE'
p333
S"<class 'gluon.validators.IS_IMAGE'>"
p334
sS'I'
S"<class 'gluon.html.I'>"
p335
sS'IS_NOT_IN_DB'
p336
S"<class 'gluon.validators.IS_NOT_IN_DB'>"
p337
sS'user'
p338
S'None'
p339
sg113
S"<Storage {'body': <cStringIO.StringO object at 0... at 0x7f798944fde8>, 'view': 'user/signin.html'}>"
p340
sS'THEAD'
p341
S"<class 'gluon.html.THEAD'>"
p342
sS'a'
S"'a'"
p343
sS'IS_NULL_OR'
p344
S"<class 'gluon.validators.IS_EMPTY_OR'>"
p345
sg56
S"<Storage {'_vars': <Storage {}>, 'function': 'si.../home/satyam/itws/web2py/applications/library/'}>"
p346
sS'IS_EXPR'
p347
S"<class 'gluon.validators.IS_EXPR'>"
p348
sS'T'
S'<gluon.languages.translator object>'
p349
sS'IS_IN_SET'
p350
S"<class 'gluon.validators.IS_IN_SET'>"
p351
sS'IS_UPLOAD_FILENAME'
p352
S"<class 'gluon.validators.IS_UPLOAD_FILENAME'>"
p353
sS'TT'
p354
S"<class 'gluon.html.TT'>"
p355
sS'IS_DECIMAL_IN_RANGE'
p356
S"<class 'gluon.validators.IS_DECIMAL_IN_RANGE'>"
p357
sssS'traceback'
p358
S'Traceback (most recent call last):\n  File "/home/satyam/itws/web2py/gluon/restricted.py", line 227, in restricted\n    exec ccode in environment\n  File "/home/satyam/itws/web2py/applications/library/views/user/signin.html", line 2, in <module>\nNameError: name \'page_title\' is not defined\n'
p359
s.